(dp0
Vlea
p1
I00
sVcommands
p2
(lp3
Vrm bld/gcc/*.{out,o,d}
p4
aVfind ext/libdnn -name '*.a' -or -name '*.o' | xargs rm
p5
aVfind ext/libdsp -name '*.a' -or -name '*.o' | xargs rm
p6
aVmake -j4 bld/gcc/all TARGET=mnist BACKEND=lea TRIALS=11 MAT_BUF_SIZE=0x310 LAYER_BUF_SIZE=0x3000 TILE_SIZE=256 DISABLE_LEA=1
p7
asVtarget
p8
Vmnist
p9
sVdma
p10
I2
sS'mem'
p11
S':020000040003F7\n:10A00000FFFFFFFFFFFFFFFFFFFFFFFFFFFFFFFF60\n:10A01000FFFFFFFFFFFFFFFFFFFFFFFFFFFFFFFF50\n:10A02000FFFFFFFFFFFFFFFFFFFFFFFFFFFFFFFF40\n:10A03000FFFFFFFFFFFFFFFFFFFFFFFFFFFFFFFF30\n:00000001FF\n'
p12
sS'trials'
p13
(lp14
(dp15
Voverall
p16
(dp17
Voverflow
p18
I7
sVtime
p19
I-24338
ssVcharge
p20
(dp21
Voverflow
p22
I0
sVcycles
p23
I212
ssVsections
p24
(lp25
(dp26
Voff
p27
(dp28
Voverflow
p29
I1
sVtime
p30
I10540
ssVcharge
p31
(dp32
Voverflow
p33
I0
sVcycles
p34
I59
ssVoverall
p35
(dp36
Voverflow
p37
I2
sVtime
p38
I-8954
ssa(dp39
Voff
p40
(dp41
Voverflow
p42
I3
sVtime
p43
I4315
ssVcharge
p44
(dp45
Voverflow
p46
I0
sVcycles
p47
I140
ssVoverall
p48
(dp49
Voverflow
p50
I4
sVtime
p51
I5078
ssa(dp52
Voff
p53
(dp54
Voverflow
p55
I0
sVtime
p56
I2931
ssVcharge
p57
(dp58
Voverflow
p59
I0
sVcycles
p60
I4
ssVoverall
p61
(dp62
Voverflow
p63
I1
sVtime
p64
I-28940
ssasVoff
p65
(dp66
Voverflow
p67
I5
sVtime
p68
I-8412
ssa(dp69
Voverall
p70
(dp71
Voverflow
p72
I6
sVtime
p73
I8058
ssVcharge
p74
(dp75
Voverflow
p76
I0
sVcycles
p77
I212
ssVsections
p78
(lp79
(dp80
Voff
p81
(dp82
Voverflow
p83
I1
sVtime
p84
I9888
ssVcharge
p85
(dp86
Voverflow
p87
I0
sVcycles
p88
I58
ssVoverall
p89
(dp90
Voverflow
p91
I1
sVtime
p92
I22907
ssa(dp93
Voff
p94
(dp95
Voverflow
p96
I3
sVtime
p97
I4660
ssVcharge
p98
(dp99
Voverflow
p100
I0
sVcycles
p101
I141
ssVoverall
p102
(dp103
Voverflow
p104
I4
sVtime
p105
I5609
ssa(dp106
Voff
p107
(dp108
Voverflow
p109
I0
sVtime
p110
I2934
ssVcharge
p111
(dp112
Voverflow
p113
I0
sVcycles
p114
I4
ssVoverall
p115
(dp116
Voverflow
p117
I0
sVtime
p118
I3841
ssasVoff
p119
(dp120
Voverflow
p121
I5
sVtime
p122
I-8741
ssa(dp123
Voverall
p124
(dp125
Voverflow
p126
I6
sVtime
p127
I8773
ssVcharge
p128
(dp129
Voverflow
p130
I0
sVcycles
p131
I212
ssVsections
p132
(lp133
(dp134
Voff
p135
(dp136
Voverflow
p137
I1
sVtime
p138
I9977
ssVcharge
p139
(dp140
Voverflow
p141
I0
sVcycles
p142
I58
ssVoverall
p143
(dp144
Voverflow
p145
I2
sVtime
p146
I-9770
ssa(dp147
Voff
p148
(dp149
Voverflow
p150
I3
sVtime
p151
I5246
ssVcharge
p152
(dp153
Voverflow
p154
I0
sVcycles
p155
I141
ssVoverall
p156
(dp157
Voverflow
p158
I4
sVtime
p159
I6210
ssa(dp160
Voff
p161
(dp162
Voverflow
p163
I0
sVtime
p164
I2917
ssVcharge
p165
(dp166
Voverflow
p167
I0
sVcycles
p168
I4
ssVoverall
p169
(dp170
Voverflow
p171
I0
sVtime
p172
I3818
ssasVoff
p173
(dp174
Voverflow
p175
I4
sVtime
p176
I24750
ssa(dp177
Voverall
p178
(dp179
Voverflow
p180
I7
sVtime
p181
I-22476
ssVcharge
p182
(dp183
Voverflow
p184
I0
sVcycles
p185
I213
ssVsections
p186
(lp187
(dp188
Voff
p189
(dp190
Voverflow
p191
I2
sVtime
p192
I-22627
ssVcharge
p193
(dp194
Voverflow
p195
I0
sVcycles
p196
I58
ssVoverall
p197
(dp198
Voverflow
p199
I2
sVtime
p200
I-9609
ssa(dp201
Voff
p202
(dp203
Voverflow
p204
I3
sVtime
p205
I6439
ssVcharge
p206
(dp207
Voverflow
p208
I0
sVcycles
p209
I142
ssVoverall
p210
(dp211
Voverflow
p212
I4
sVtime
p213
I7534
ssa(dp214
Voff
p215
(dp216
Voverflow
p217
I0
sVtime
p218
I2952
ssVcharge
p219
(dp220
Voverflow
p221
I0
sVcycles
p222
I4
ssVoverall
p223
(dp224
Voverflow
p225
I1
sVtime
p226
I-28909
ssasVoff
p227
(dp228
Voverflow
p229
I5
sVtime
p230
I-6642
ssa(dp231
Voverall
p232
(dp233
Voverflow
p234
I6
sVtime
p235
I9073
ssVcharge
p236
(dp237
Voverflow
p238
I0
sVcycles
p239
I212
ssVsections
p240
(lp241
(dp242
Voff
p243
(dp244
Voverflow
p245
I2
sVtime
p246
I-22659
ssVcharge
p247
(dp248
Voverflow
p249
I0
sVcycles
p250
I58
ssVoverall
p251
(dp252
Voverflow
p253
I1
sVtime
p254
I23141
ssa(dp255
Voff
p256
(dp257
Voverflow
p258
I3
sVtime
p259
I5416
ssVcharge
p260
(dp261
Voverflow
p262
I0
sVcycles
p263
I141
ssVoverall
p264
(dp265
Voverflow
p266
I4
sVtime
p267
I6364
ssa(dp268
Voff
p269
(dp270
Voverflow
p271
I0
sVtime
p272
I2935
ssVcharge
p273
(dp274
Voverflow
p275
I0
sVcycles
p276
I4
ssVoverall
p277
(dp278
Voverflow
p279
I0
sVtime
p280
I3824
ssasVoff
p281
(dp282
Voverflow
p283
I5
sVtime
p284
I-7707
ssa(dp285
Voverall
p286
(dp287
Voverflow
p288
I6
sVtime
p289
I9051
ssVcharge
p290
(dp291
Voverflow
p292
I0
sVcycles
p293
I212
ssVsections
p294
(lp295
(dp296
Voff
p297
(dp298
Voverflow
p299
I1
sVtime
p300
I10121
ssVcharge
p301
(dp302
Voverflow
p303
I0
sVcycles
p304
I58
ssVoverall
p305
(dp306
Voverflow
p307
I2
sVtime
p308
I-9654
ssa(dp309
Voff
p310
(dp311
Voverflow
p312
I3
sVtime
p313
I5456
ssVcharge
p314
(dp315
Voverflow
p316
I0
sVcycles
p317
I141
ssVoverall
p318
(dp319
Voverflow
p320
I4
sVtime
p321
I6396
ssa(dp322
Voff
p323
(dp324
Voverflow
p325
I0
sVtime
p326
I2923
ssVcharge
p327
(dp328
Voverflow
p329
I0
sVcycles
p330
I4
ssVoverall
p331
(dp332
Voverflow
p333
I0
sVtime
p334
I3834
ssasVoff
p335
(dp336
Voverflow
p337
I5
sVtime
p338
I-7696
ssa(dp339
Voverall
p340
(dp341
Voverflow
p342
I7
sVtime
p343
I-22673
ssVcharge
p344
(dp345
Voverflow
p346
I0
sVcycles
p347
I213
ssVsections
p348
(lp349
(dp350
Voff
p351
(dp352
Voverflow
p353
I1
sVtime
p354
I10143
ssVcharge
p355
(dp356
Voverflow
p357
I0
sVcycles
p358
I58
ssVoverall
p359
(dp360
Voverflow
p361
I2
sVtime
p362
I-9603
ssa(dp363
Voff
p364
(dp365
Voverflow
p366
I4
sVtime
p367
I-27224
ssVcharge
p368
(dp369
Voverflow
p370
I0
sVcycles
p371
I141
ssVoverall
p372
(dp373
Voverflow
p374
I4
sVtime
p375
I6412
ssa(dp376
Voff
p377
(dp378
Voverflow
p379
I0
sVtime
p380
I3690
ssVcharge
p381
(dp382
Voverflow
p383
I0
sVcycles
p384
I5
ssVoverall
p385
(dp386
Voverflow
p387
I1
sVtime
p388
I-28001
ssasVoff
p389
(dp390
Voverflow
p391
I5
sVtime
p392
I-6781
ssa(dp393
Voverall
p394
(dp395
Voverflow
p396
I6
sVtime
p397
I8393
ssVcharge
p398
(dp399
Voverflow
p400
I0
sVcycles
p401
I212
ssVsections
p402
(lp403
(dp404
Voff
p405
(dp406
Voverflow
p407
I1
sVtime
p408
I9949
ssVcharge
p409
(dp410
Voverflow
p411
I0
sVcycles
p412
I58
ssVoverall
p413
(dp414
Voverflow
p415
I1
sVtime
p416
I22970
ssa(dp417
Voff
p418
(dp419
Voverflow
p420
I3
sVtime
p421
I4860
ssVcharge
p422
(dp423
Voverflow
p424
I0
sVcycles
p425
I141
ssVoverall
p426
(dp427
Voverflow
p428
I4
sVtime
p429
I5882
ssa(dp430
Voff
p431
(dp432
Voverflow
p433
I0
sVtime
p434
I2922
ssVcharge
p435
(dp436
Voverflow
p437
I0
sVcycles
p438
I4
ssVoverall
p439
(dp440
Voverflow
p441
I0
sVtime
p442
I3830
ssasVoff
p443
(dp444
Voverflow
p445
I5
sVtime
p446
I-8479
ssa(dp447
Voverall
p448
(dp449
Voverflow
p450
I6
sVtime
p451
I7431
ssVcharge
p452
(dp453
Voverflow
p454
I0
sVcycles
p455
I211
ssVsections
p456
(lp457
(dp458
Voff
p459
(dp460
Voverflow
p461
I1
sVtime
p462
I9950
ssVcharge
p463
(dp464
Voverflow
p465
I0
sVcycles
p466
I58
ssVoverall
p467
(dp468
Voverflow
p469
I2
sVtime
p470
I-9744
ssa(dp471
Voff
p472
(dp473
Voverflow
p474
I3
sVtime
p475
I4025
ssVcharge
p476
(dp477
Voverflow
p478
I0
sVcycles
p479
I140
ssVoverall
p480
(dp481
Voverflow
p482
I4
sVtime
p483
I4864
ssa(dp484
Voff
p485
(dp486
Voverflow
p487
I0
sVtime
p488
I2916
ssVcharge
p489
(dp490
Voverflow
p491
I0
sVcycles
p492
I4
ssVoverall
p493
(dp494
Voverflow
p495
I0
sVtime
p496
I3805
ssasVoff
p497
(dp498
Voverflow
p499
I4
sVtime
p500
I23484
ssa(dp501
Voverall
p502
(dp503
Voverflow
p504
I7
sVtime
p505
I-24088
ssVcharge
p506
(dp507
Voverflow
p508
I0
sVcycles
p509
I212
ssVsections
p510
(lp511
(dp512
Voff
p513
(dp514
Voverflow
p515
I2
sVtime
p516
I-22790
ssVcharge
p517
(dp518
Voverflow
p519
I0
sVcycles
p520
I58
ssVoverall
p521
(dp522
Voverflow
p523
I2
sVtime
p524
I-9776
ssa(dp525
Voff
p526
(dp527
Voverflow
p528
I3
sVtime
p529
I5090
ssVcharge
p530
(dp531
Voverflow
p532
I0
sVcycles
p533
I141
ssVoverall
p534
(dp535
Voverflow
p536
I4
sVtime
p537
I6098
ssa(dp538
Voff
p539
(dp540
Voverflow
p541
I0
sVtime
p542
I2957
ssVcharge
p543
(dp544
Voverflow
p545
I0
sVcycles
p546
I4
ssVoverall
p547
(dp548
Voverflow
p549
I1
sVtime
p550
I-28908
ssasVoff
p551
(dp552
Voverflow
p553
I5
sVtime
p554
I-8152
ssa(dp555
Voverall
p556
(dp557
Voverflow
p558
I6
sVtime
p559
I9102
ssVcharge
p560
(dp561
Voverflow
p562
I0
sVcycles
p563
I212
ssVsections
p564
(lp565
(dp566
Voff
p567
(dp568
Voverflow
p569
I1
sVtime
p570
I10198
ssVcharge
p571
(dp572
Voverflow
p573
I0
sVcycles
p574
I58
ssVoverall
p575
(dp576
Voverflow
p577
I1
sVtime
p578
I23217
ssa(dp579
Voff
p580
(dp581
Voverflow
p582
I3
sVtime
p583
I5370
ssVcharge
p584
(dp585
Voverflow
p586
I0
sVcycles
p587
I141
ssVoverall
p588
(dp589
Voverflow
p590
I5
sVtime
p591
I-26484
ssa(dp592
Voff
p593
(dp594
Voverflow
p595
I0
sVtime
p596
I2951
ssVcharge
p597
(dp598
Voverflow
p599
I0
sVcycles
p600
I4
ssVoverall
p601
(dp602
Voverflow
p603
I0
sVtime
p604
I3848
ssasVoff
p605
(dp606
Voverflow
p607
I5
sVtime
p608
I-7630
ssasVeid
p609
I11
sVtile_size
p610
I256
sVbackend
p611
Vlea_fir
p612
s.