(dp0
Vlea
p1
I00
sVcommands
p2
(lp3
Vrm bld/gcc/*.{out,o,d}
p4
aVfind ext/libdnn -name '*.a' -or -name '*.o' | xargs rm
p5
aVmake -j4 bld/gcc/all TARGET=har BACKEND=tile TRIALS=11 MAT_BUF_SIZE=0x310 LAYER_BUF_SIZE=0x3000 TILE_SIZE=8
p6
asVtarget
p7
Vhar
p8
sVdma
p9
I0
sS'mem'
p10
S':020000040003F7\n:10A00000010001000000010001000000010001004A\n:10A01000000001000100000001000100000001003B\n:10A02000010000000100010000000100010000002B\n:10A03000010001000000010001000000010001001A\n:00000001FF\n'
p11
sS'trials'
p12
(lp13
(dp14
Voverall
p15
(dp16
Voverflow
p17
I53
sVtime
p18
I-20131
ssVcharge
p19
(dp20
Voverflow
p21
I0
sVcycles
p22
I1781
ssVsections
p23
(lp24
(dp25
Voff
p26
(dp27
Voverflow
p28
I15
sVtime
p29
I12673
ssVcharge
p30
(dp31
Voverflow
p32
I0
sVcycles
p33
I682
ssVoverall
p34
(dp35
Voverflow
p36
I20
sVtime
p37
I3141
ssa(dp38
Voff
p39
(dp40
Voverflow
p41
I24
sVtime
p42
I4117
ssVcharge
p43
(dp44
Voverflow
p45
I0
sVcycles
p46
I1065
ssVoverall
p47
(dp48
Voverflow
p49
I32
sVtime
p50
I-23161
ssasVoff
p51
(dp52
Voverflow
p53
I40
sVtime
p54
I9215
ssa(dp55
Voverall
p56
(dp57
Voverflow
p58
I52
sVtime
p59
I14337
ssVcharge
p60
(dp61
Voverflow
p62
I0
sVcycles
p63
I1783
ssVsections
p64
(lp65
(dp66
Voff
p67
(dp68
Voverflow
p69
I16
sVtime
p70
I-18553
ssVcharge
p71
(dp72
Voverflow
p73
I0
sVcycles
p74
I682
ssVoverall
p75
(dp76
Voverflow
p77
I20
sVtime
p78
I4473
ssa(dp79
Voff
p80
(dp81
Voverflow
p82
I24
sVtime
p83
I3758
ssVcharge
p84
(dp85
Voverflow
p86
I0
sVcycles
p87
I1066
ssVoverall
p88
(dp89
Voverflow
p90
I31
sVtime
p91
I8932
ssasVoff
p92
(dp93
Voverflow
p94
I41
sVtime
p95
I-21516
ssa(dp96
Voverall
p97
(dp98
Voverflow
p99
I53
sVtime
p100
I-17219
ssVcharge
p101
(dp102
Voverflow
p103
I0
sVcycles
p104
I1785
ssVsections
p105
(lp106
(dp107
Voff
p108
(dp109
Voverflow
p110
I15
sVtime
p111
I13812
ssVcharge
p112
(dp113
Voverflow
p114
I0
sVcycles
p115
I683
ssVoverall
p116
(dp117
Voverflow
p118
I20
sVtime
p119
I3990
ssa(dp120
Voff
p121
(dp122
Voverflow
p123
I24
sVtime
p124
I5358
ssVcharge
p125
(dp126
Voverflow
p127
I0
sVcycles
p128
I1067
ssVoverall
p129
(dp130
Voverflow
p131
I32
sVtime
p132
I-21958
ssasVoff
p133
(dp134
Voverflow
p135
I40
sVtime
p136
I12265
ssa(dp137
Voverall
p138
(dp139
Voverflow
p140
I52
sVtime
p141
I18843
ssVcharge
p142
(dp143
Voverflow
p144
I0
sVcycles
p145
I1787
ssVsections
p146
(lp147
(dp148
Voff
p149
(dp150
Voverflow
p151
I16
sVtime
p152
I-18402
ssVcharge
p153
(dp154
Voverflow
p155
I0
sVcycles
p156
I683
ssVoverall
p157
(dp158
Voverflow
p159
I20
sVtime
p160
I4598
ssa(dp161
Voff
p162
(dp163
Voverflow
p164
I25
sVtime
p165
I-24556
ssVcharge
p166
(dp167
Voverflow
p168
I0
sVcycles
p169
I1069
ssVoverall
p170
(dp171
Voverflow
p172
I31
sVtime
p173
I13501
ssasVoff
p174
(dp175
Voverflow
p176
I41
sVtime
p177
I-17103
ssa(dp178
Voverall
p179
(dp180
Voverflow
p181
I53
sVtime
p182
I-17944
ssVcharge
p183
(dp184
Voverflow
p185
I1
sVcycles
p186
I-30983
ssVsections
p187
(lp188
(dp189
Voff
p190
(dp191
Voverflow
p192
I15
sVtime
p193
I13666
ssVcharge
p194
(dp195
Voverflow
p196
I0
sVcycles
p197
I683
ssVoverall
p198
(dp199
Voverflow
p200
I20
sVtime
p201
I3864
ssa(dp202
Voff
p203
(dp204
Voverflow
p205
I24
sVtime
p206
I6043
ssVcharge
p207
(dp208
Voverflow
p209
I1
sVcycles
p210
I-31700
ssVoverall
p211
(dp212
Voverflow
p213
I32
sVtime
p214
I-21504
ssasVoff
p215
(dp216
Voverflow
p217
I40
sVtime
p218
I11920
ssa(dp219
Voverall
p220
(dp221
Voverflow
p222
I52
sVtime
p223
I18916
ssVcharge
p224
(dp225
Voverflow
p226
I0
sVcycles
p227
I1787
ssVsections
p228
(lp229
(dp230
Voff
p231
(dp232
Voverflow
p233
I16
sVtime
p234
I-16321
ssVcharge
p235
(dp236
Voverflow
p237
I0
sVcycles
p238
I684
ssVoverall
p239
(dp240
Voverflow
p241
I20
sVtime
p242
I6485
ssa(dp243
Voff
p244
(dp245
Voverflow
p246
I25
sVtime
p247
I-26452
ssVcharge
p248
(dp249
Voverflow
p250
I0
sVcycles
p251
I1068
ssVoverall
p252
(dp253
Voverflow
p254
I31
sVtime
p255
I11581
ssasVoff
p256
(dp257
Voverflow
p258
I41
sVtime
p259
I-16798
ssa(dp260
Voverall
p261
(dp262
Voverflow
p263
I53
sVtime
p264
I-28804
ssVcharge
p265
(dp266
Voverflow
p267
I0
sVcycles
p268
I1779
ssVsections
p269
(lp270
(dp271
Voff
p272
(dp273
Voverflow
p274
I15
sVtime
p275
I10493
ssVcharge
p276
(dp277
Voverflow
p278
I0
sVcycles
p279
I681
ssVoverall
p280
(dp281
Voverflow
p282
I21
sVtime
p283
I-32089
ssa(dp284
Voff
p285
(dp286
Voverflow
p287
I24
sVtime
p288
I-1787
ssVcharge
p289
(dp290
Voverflow
p291
I0
sVcycles
p292
I1064
ssVoverall
p293
(dp294
Voverflow
p295
I32
sVtime
p296
I-29239
ssasVoff
p297
(dp298
Voverflow
p299
I40
sVtime
p300
I948
ssa(dp301
Voverall
p302
(dp303
Voverflow
p304
I47
sVtime
p305
I27772
ssVcharge
p306
(dp307
Voverflow
p308
I0
sVcycles
p309
I1713
ssVsections
p310
(lp311
(dp312
Voff
p313
(dp314
Voverflow
p315
I15
sVtime
p316
I6993
ssVcharge
p317
(dp318
Voverflow
p319
I0
sVcycles
p320
I680
ssVoverall
p321
(dp322
Voverflow
p323
I20
sVtime
p324
I-2838
ssa(dp325
Voff
p326
(dp327
Voverflow
p328
I19
sVtime
p329
I24325
ssVcharge
p330
(dp331
Voverflow
p332
I0
sVcycles
p333
I998
ssVoverall
p334
(dp335
Voverflow
p336
I26
sVtime
p337
I29566
ssasVoff
p338
(dp339
Voverflow
p340
I35
sVtime
p341
I24734
ssa(dp342
Voverall
p343
(dp344
Voverflow
p345
I44
sVtime
p346
I22022
ssVcharge
p347
(dp348
Voverflow
p349
I0
sVcycles
p350
I1657
ssVsections
p351
(lp352
(dp353
Voff
p354
(dp355
Voverflow
p356
I13
sVtime
p357
I-12127
ssVcharge
p358
(dp359
Voverflow
p360
I0
sVcycles
p361
I637
ssVoverall
p362
(dp363
Voverflow
p364
I17
sVtime
p365
I10834
ssa(dp366
Voff
p367
(dp368
Voverflow
p369
I19
sVtime
p370
I8423
ssVcharge
p371
(dp372
Voverflow
p373
I0
sVcycles
p374
I987
ssVoverall
p375
(dp376
Voverflow
p377
I26
sVtime
p378
I13780
ssasVoff
p379
(dp380
Voverflow
p381
I33
sVtime
p382
I-13832
ssa(dp383
Voverall
p384
(dp385
Voverflow
p386
I45
sVtime
p387
I7272
ssVcharge
p388
(dp389
Voverflow
p390
I0
sVcycles
p391
I1665
ssVsections
p392
(lp393
(dp394
Voff
p395
(dp396
Voverflow
p397
I13
sVtime
p398
I-7899
ssVcharge
p399
(dp400
Voverflow
p401
I0
sVcycles
p402
I638
ssVoverall
p403
(dp404
Voverflow
p405
I18
sVtime
p406
I-17707
ssa(dp407
Voff
p408
(dp409
Voverflow
p410
I20
sVtime
p411
I-8253
ssVcharge
p412
(dp413
Voverflow
p414
I0
sVcycles
p415
I995
ssVoverall
p416
(dp417
Voverflow
p418
I26
sVtime
p419
I29929
ssasVoff
p420
(dp421
Voverflow
p422
I33
sVtime
p423
I4062
ssa(dp424
Voverall
p425
(dp426
Voverflow
p427
I43
sVtime
p428
I20768
ssVcharge
p429
(dp430
Voverflow
p431
I0
sVcycles
p432
I1638
ssVsections
p433
(lp434
(dp435
Voff
p436
(dp437
Voverflow
p438
I12
sVtime
p439
I-396
ssVcharge
p440
(dp441
Voverflow
p442
I0
sVcycles
p443
I625
ssVoverall
p444
(dp445
Voverflow
p446
I16
sVtime
p447
I22588
ssa(dp448
Voff
p449
(dp450
Voverflow
p451
I19
sVtime
p452
I-2613
ssVcharge
p453
(dp454
Voverflow
p455
I0
sVcycles
p456
I981
ssVoverall
p457
(dp458
Voverflow
p459
I26
sVtime
p460
I2667
ssasVoff
p461
(dp462
Voverflow
p463
I32
sVtime
p464
I-14997
ssasVeid
p465
I14
sVtile_size
p466
I8
sVbackend
p467
Vtile
p468
s.