(dp0
Vlea
p1
I00
sVcommands
p2
(lp3
Vrm bld/gcc/*.{out,o,d}
p4
aVfind ext/libdnn -name '*.a' -or -name '*.o' | xargs rm
p5
aVmake -j4 bld/gcc/all TARGET=har BACKEND=tile TRIALS=11 MAT_BUF_SIZE=0x310 LAYER_BUF_SIZE=0x3000 TILE_SIZE=32
p6
asVtarget
p7
Vhar
p8
sVdma
p9
I0
sS'mem'
p10
S':020000040003F7\n:10A00000010001000000010001000000010001004A\n:10A01000000001000100000001000100000001003B\n:10A02000010000000100010000000100010000002B\n:10A03000010001000000010001000000010001001A\n:00000001FF\n'
p11
sS'trials'
p12
(lp13
(dp14
Voverall
p15
(dp16
Voverflow
p17
I32
sVtime
p18
I1363
ssVcharge
p19
(dp20
Voverflow
p21
I0
sVcycles
p22
I1138
ssVsections
p23
(lp24
(dp25
Voff
p26
(dp27
Voverflow
p28
I7
sVtime
p29
I16173
ssVcharge
p30
(dp31
Voverflow
p32
I0
sVcycles
p33
I383
ssVoverall
p34
(dp35
Voverflow
p36
I11
sVtime
p37
I-19692
ssa(dp38
Voff
p39
(dp40
Voverflow
p41
I16
sVtime
p42
I-12382
ssVcharge
p43
(dp44
Voverflow
p45
I0
sVcycles
p46
I726
ssVoverall
p47
(dp48
Voverflow
p49
I21
sVtime
p50
I-5684
ssasVoff
p51
(dp52
Voverflow
p53
I24
sVtime
p54
I-9050
ssa(dp55
Voverall
p56
(dp57
Voverflow
p58
I35
sVtime
p59
I-23344
ssVcharge
p60
(dp61
Voverflow
p62
I0
sVcycles
p63
I1174
ssVsections
p64
(lp65
(dp66
Voff
p67
(dp68
Voverflow
p69
I7
sVtime
p70
I6865
ssVcharge
p71
(dp72
Voverflow
p73
I0
sVcycles
p74
I377
ssVoverall
p75
(dp76
Voverflow
p77
I10
sVtime
p78
I3231
ssa(dp79
Voff
p80
(dp81
Voverflow
p82
I18
sVtime
p83
I700
ssVcharge
p84
(dp85
Voverflow
p86
I0
sVcycles
p87
I766
ssVoverall
p88
(dp89
Voverflow
p90
I24
sVtime
p91
I-25092
ssasVoff
p92
(dp93
Voverflow
p94
I26
sVtime
p95
I-758
ssa(dp96
Voverall
p97
(dp98
Voverflow
p99
I36
sVtime
p100
I10886
ssVcharge
p101
(dp102
Voverflow
p103
I0
sVcycles
p104
I1210
ssVsections
p105
(lp106
(dp107
Voff
p108
(dp109
Voverflow
p110
I9
sVtime
p111
I22725
ssVcharge
p112
(dp113
Voverflow
p114
I0
sVcycles
p115
I420
ssVoverall
p116
(dp117
Voverflow
p118
I12
sVtime
p119
I20096
ssa(dp120
Voff
p121
(dp122
Voverflow
p123
I18
sVtime
p124
I-14624
ssVcharge
p125
(dp126
Voverflow
p127
I0
sVcycles
p128
I759
ssVoverall
p129
(dp130
Voverflow
p131
I23
sVtime
p132
I-7616
ssasVoff
p133
(dp134
Voverflow
p135
I28
sVtime
p136
I-320
ssa(dp137
Voverall
p138
(dp139
Voverflow
p140
I32
sVtime
p141
I-17355
ssVcharge
p142
(dp143
Voverflow
p144
I0
sVcycles
p145
I1137
ssVsections
p146
(lp147
(dp148
Voff
p149
(dp150
Voverflow
p151
I8
sVtime
p152
I3526
ssVcharge
p153
(dp154
Voverflow
p155
I0
sVcycles
p156
I395
ssVoverall
p157
(dp158
Voverflow
p159
I11
sVtime
p160
I360
ssa(dp161
Voff
p162
(dp163
Voverflow
p164
I15
sVtime
p165
I-18104
ssVcharge
p166
(dp167
Voverflow
p168
I0
sVcycles
p169
I713
ssVoverall
p170
(dp171
Voverflow
p172
I19
sVtime
p173
I21485
ssasVoff
p174
(dp175
Voverflow
p176
I23
sVtime
p177
I4884
ssa(dp178
Voverall
p179
(dp180
Voverflow
p181
I30
sVtime
p182
I6034
ssVcharge
p183
(dp184
Voverflow
p185
I0
sVcycles
p186
I1117
ssVsections
p187
(lp188
(dp189
Voff
p190
(dp191
Voverflow
p192
I7
sVtime
p193
I16135
ssVcharge
p194
(dp195
Voverflow
p196
I0
sVcycles
p197
I387
ssVoverall
p198
(dp199
Voverflow
p200
I10
sVtime
p201
I14175
ssa(dp202
Voff
p203
(dp204
Voverflow
p205
I14
sVtime
p206
I-6934
ssVcharge
p207
(dp208
Voverflow
p209
I0
sVcycles
p210
I702
ssVoverall
p211
(dp212
Voverflow
p213
I19
sVtime
p214
I-90
ssasVoff
p215
(dp216
Voverflow
p217
I22
sVtime
p218
I-5652
ssa(dp219
Voverall
p220
(dp221
Voverflow
p222
I30
sVtime
p223
I-3188
ssVcharge
p224
(dp225
Voverflow
p226
I0
sVcycles
p227
I1111
ssVsections
p228
(lp229
(dp230
Voff
p231
(dp232
Voverflow
p233
I7
sVtime
p234
I13936
ssVcharge
p235
(dp236
Voverflow
p237
I0
sVcycles
p238
I385
ssVoverall
p239
(dp240
Voverflow
p241
I10
sVtime
p242
I11558
ssa(dp243
Voff
p244
(dp245
Voverflow
p246
I13
sVtime
p247
I19957
ssVcharge
p248
(dp249
Voverflow
p250
I0
sVcycles
p251
I698
ssVoverall
p252
(dp253
Voverflow
p254
I19
sVtime
p255
I-6222
ssasVoff
p256
(dp257
Voverflow
p258
I21
sVtime
p259
I18446
ssa(dp260
Voverall
p261
(dp262
Voverflow
p263
I30
sVtime
p264
I13140
ssVcharge
p265
(dp266
Voverflow
p267
I0
sVcycles
p268
I1121
ssVsections
p269
(lp270
(dp271
Voff
p272
(dp273
Voverflow
p274
I8
sVtime
p275
I-12474
ssVcharge
p276
(dp277
Voverflow
p278
I0
sVcycles
p279
I390
ssVoverall
p280
(dp281
Voverflow
p282
I10
sVtime
p283
I18421
ssa(dp284
Voff
p285
(dp286
Voverflow
p287
I14
sVtime
p288
I-3991
ssVcharge
p289
(dp290
Voverflow
p291
I0
sVcycles
p292
I703
ssVoverall
p293
(dp294
Voverflow
p295
I19
sVtime
p296
I2729
ssasVoff
p297
(dp298
Voverflow
p299
I22
sVtime
p300
I1469
ssa(dp301
Voverall
p302
(dp303
Voverflow
p304
I30
sVtime
p305
I7880
ssVcharge
p306
(dp307
Voverflow
p308
I0
sVcycles
p309
I1118
ssVsections
p310
(lp311
(dp312
Voff
p313
(dp314
Voverflow
p315
I8
sVtime
p316
I-13187
ssVcharge
p317
(dp318
Voverflow
p319
I0
sVcycles
p320
I389
ssVoverall
p321
(dp322
Voverflow
p323
I11
sVtime
p324
I-15162
ssa(dp325
Voff
p326
(dp327
Voverflow
p328
I14
sVtime
p329
I-8391
ssVcharge
p330
(dp331
Voverflow
p332
I0
sVcycles
p333
I701
ssVoverall
p334
(dp335
Voverflow
p336
I19
sVtime
p337
I-1717
ssasVoff
p338
(dp339
Voverflow
p340
I22
sVtime
p341
I-3637
ssa(dp342
Voverall
p343
(dp344
Voverflow
p345
I31
sVtime
p346
I-2974
ssVcharge
p347
(dp348
Voverflow
p349
I0
sVcycles
p350
I1129
ssVsections
p351
(lp352
(dp353
Voff
p354
(dp355
Voverflow
p356
I8
sVtime
p357
I-8745
ssVcharge
p358
(dp359
Voverflow
p360
I0
sVcycles
p361
I391
ssVoverall
p362
(dp363
Voverflow
p364
I10
sVtime
p365
I21766
ssa(dp366
Voff
p367
(dp368
Voverflow
p369
I14
sVtime
p370
I8380
ssVcharge
p371
(dp372
Voverflow
p373
I0
sVcycles
p374
I709
ssVoverall
p375
(dp376
Voverflow
p377
I19
sVtime
p378
I14852
ssasVoff
p379
(dp380
Voverflow
p381
I23
sVtime
p382
I-14099
ssa(dp383
Voverall
p384
(dp385
Voverflow
p386
I31
sVtime
p387
I-9196
ssVcharge
p388
(dp389
Voverflow
p390
I0
sVcycles
p391
I1126
ssVsections
p392
(lp393
(dp394
Voff
p395
(dp396
Voverflow
p397
I8
sVtime
p398
I-5764
ssVcharge
p399
(dp400
Voverflow
p401
I0
sVcycles
p402
I393
ssVoverall
p403
(dp404
Voverflow
p405
I11
sVtime
p406
I-7976
ssa(dp407
Voff
p408
(dp409
Voverflow
p410
I14
sVtime
p411
I6
ssVcharge
p412
(dp413
Voverflow
p414
I0
sVcycles
p415
I705
ssVoverall
p416
(dp417
Voverflow
p418
I19
sVtime
p419
I6567
ssasVoff
p420
(dp421
Voverflow
p422
I22
sVtime
p423
I12477
ssa(dp424
Voverall
p425
(dp426
Voverflow
p427
I30
sVtime
p428
I4381
ssVcharge
p429
(dp430
Voverflow
p431
I0
sVcycles
p432
I1115
ssVsections
p433
(lp434
(dp435
Voff
p436
(dp437
Voverflow
p438
I8
sVtime
p439
I-13726
ssVcharge
p440
(dp441
Voverflow
p442
I0
sVcycles
p443
I388
ssVoverall
p444
(dp445
Voverflow
p446
I11
sVtime
p447
I-15993
ssa(dp448
Voff
p449
(dp450
Voverflow
p451
I14
sVtime
p452
I-10835
ssVcharge
p453
(dp454
Voverflow
p455
I0
sVcycles
p456
I699
ssVoverall
p457
(dp458
Voverflow
p459
I19
sVtime
p460
I-4275
ssasVoff
p461
(dp462
Voverflow
p463
I22
sVtime
p464
I-6748
ssasVeid
p465
I15
sVtile_size
p466
I32
sVbackend
p467
Vtile
p468
s.