(dp0
Vlea
p1
I01
sVcommands
p2
(lp3
Vrm bld/gcc/*.{out,o,d}
p4
aVfind ext/libdnn -name '*.a' -or -name '*.o' | xargs rm
p5
aVfind ext/libdsp -name '*.a' -or -name '*.o' | xargs rm
p6
aVmake -j4 bld/gcc/all TARGET=har BACKEND=lea TRIALS=11 MAT_BUF_SIZE=0x310 LAYER_BUF_SIZE=0x3000 TILE_SIZE=32
p7
asVtarget
p8
Vhar
p9
sVdma
p10
I2
sS'mem'
p11
S':020000040003F7\n:10A00000010001000000010001000000010001004A\n:10A01000000001000100000001000100000001003B\n:10A02000010000000100010000000100010000002B\n:10A03000010001000000010001000000010001001A\n:00000001FF\n'
p12
sS'trials'
p13
(lp14
(dp15
Voverall
p16
(dp17
Voverflow
p18
I1
sVtime
p19
I26161
ssVcharge
p20
(dp21
Voverflow
p22
I0
sVcycles
p23
I65
ssVsections
p24
(lp25
(dp26
Voff
p27
(dp28
Voverflow
p29
I1
sVtime
p30
I2394
ssVcharge
p31
(dp32
Voverflow
p33
I0
sVcycles
p34
I54
ssVoverall
p35
(dp36
Voverflow
p37
I1
sVtime
p38
I16324
ssa(dp39
Voff
p40
(dp41
Voverflow
p42
I0
sVtime
p43
I4842
ssVcharge
p44
(dp45
Voverflow
p46
I0
sVcycles
p47
I7
ssVoverall
p48
(dp49
Voverflow
p50
I0
sVtime
p51
I6411
ssasVoff
p52
(dp53
Voverflow
p54
I1
sVtime
p55
I9802
ssa(dp56
Voverall
p57
(dp58
Voverflow
p59
I2
sVtime
p60
I-6462
ssVcharge
p61
(dp62
Voverflow
p63
I0
sVcycles
p64
I65
ssVsections
p65
(lp66
(dp67
Voff
p68
(dp69
Voverflow
p70
I1
sVtime
p71
I2877
ssVcharge
p72
(dp73
Voverflow
p74
I0
sVcycles
p75
I54
ssVoverall
p76
(dp77
Voverflow
p78
I2
sVtime
p79
I-16147
ssa(dp80
Voff
p81
(dp82
Voverflow
p83
I0
sVtime
p84
I4604
ssVcharge
p85
(dp86
Voverflow
p87
I0
sVcycles
p88
I7
ssVoverall
p89
(dp90
Voverflow
p91
I0
sVtime
p92
I6205
ssasVoff
p93
(dp94
Voverflow
p95
I1
sVtime
p96
I10104
ssa(dp97
Voverall
p98
(dp99
Voverflow
p100
I2
sVtime
p101
I-7530
ssVcharge
p102
(dp103
Voverflow
p104
I0
sVcycles
p105
I64
ssVsections
p106
(lp107
(dp108
Voff
p109
(dp110
Voverflow
p111
I1
sVtime
p112
I1977
ssVcharge
p113
(dp114
Voverflow
p115
I0
sVcycles
p116
I53
ssVoverall
p117
(dp118
Voverflow
p119
I2
sVtime
p120
I-17130
ssa(dp121
Voff
p122
(dp123
Voverflow
p124
I0
sVtime
p125
I4553
ssVcharge
p126
(dp127
Voverflow
p128
I0
sVcycles
p129
I7
ssVoverall
p130
(dp131
Voverflow
p132
I0
sVtime
p133
I6158
ssasVoff
p134
(dp135
Voverflow
p136
I2
sVtime
p137
I-23648
ssa(dp138
Voverall
p139
(dp140
Voverflow
p141
I2
sVtime
p142
I-7957
ssVcharge
p143
(dp144
Voverflow
p145
I0
sVcycles
p146
I64
ssVsections
p147
(lp148
(dp149
Voff
p150
(dp151
Voverflow
p152
I1
sVtime
p153
I1486
ssVcharge
p154
(dp155
Voverflow
p156
I0
sVcycles
p157
I53
ssVoverall
p158
(dp159
Voverflow
p160
I2
sVtime
p161
I-17589
ssa(dp162
Voff
p163
(dp164
Voverflow
p165
I0
sVtime
p166
I4554
ssVcharge
p167
(dp168
Voverflow
p169
I0
sVcycles
p170
I7
ssVoverall
p171
(dp172
Voverflow
p173
I0
sVtime
p174
I6175
ssasVoff
p175
(dp176
Voverflow
p177
I1
sVtime
p178
I8632
ssa(dp179
Voverall
p180
(dp181
Voverflow
p182
I2
sVtime
p183
I-7736
ssVcharge
p184
(dp185
Voverflow
p186
I0
sVcycles
p187
I64
ssVsections
p188
(lp189
(dp190
Voff
p191
(dp192
Voverflow
p193
I1
sVtime
p194
I1805
ssVcharge
p195
(dp196
Voverflow
p197
I0
sVcycles
p198
I53
ssVoverall
p199
(dp200
Voverflow
p201
I1
sVtime
p202
I15478
ssa(dp203
Voff
p204
(dp205
Voverflow
p206
I0
sVtime
p207
I4570
ssVcharge
p208
(dp209
Voverflow
p210
I0
sVcycles
p211
I7
ssVoverall
p212
(dp213
Voverflow
p214
I1
sVtime
p215
I-26587
ssasVoff
p216
(dp217
Voverflow
p218
I1
sVtime
p219
I8886
ssa(dp220
Voverall
p221
(dp222
Voverflow
p223
I1
sVtime
p224
I25214
ssVcharge
p225
(dp226
Voverflow
p227
I0
sVcycles
p228
I64
ssVsections
p229
(lp230
(dp231
Voff
p232
(dp233
Voverflow
p234
I2
sVtime
p235
I-30945
ssVcharge
p236
(dp237
Voverflow
p238
I0
sVcycles
p239
I53
ssVoverall
p240
(dp241
Voverflow
p242
I1
sVtime
p243
I15488
ssa(dp244
Voff
p245
(dp246
Voverflow
p247
I0
sVtime
p248
I4674
ssVcharge
p249
(dp250
Voverflow
p251
I0
sVcycles
p252
I7
ssVoverall
p253
(dp254
Voverflow
p255
I0
sVtime
p256
I6279
ssasVoff
p257
(dp258
Voverflow
p259
I2
sVtime
p260
I-23687
ssa(dp261
Voverall
p262
(dp263
Voverflow
p264
I1
sVtime
p265
I25445
ssVcharge
p266
(dp267
Voverflow
p268
I0
sVcycles
p269
I64
ssVsections
p270
(lp271
(dp272
Voff
p273
(dp274
Voverflow
p275
I1
sVtime
p276
I2184
ssVcharge
p277
(dp278
Voverflow
p279
I0
sVcycles
p280
I53
ssVoverall
p281
(dp282
Voverflow
p283
I1
sVtime
p284
I15775
ssa(dp285
Voff
p286
(dp287
Voverflow
p288
I0
sVtime
p289
I4641
ssVcharge
p290
(dp291
Voverflow
p292
I0
sVcycles
p293
I7
ssVoverall
p294
(dp295
Voverflow
p296
I0
sVtime
p297
I6236
ssasVoff
p298
(dp299
Voverflow
p300
I1
sVtime
p301
I9405
ssa(dp302
Voverall
p303
(dp304
Voverflow
p305
I2
sVtime
p306
I-7633
ssVcharge
p307
(dp308
Voverflow
p309
I0
sVcycles
p310
I64
ssVsections
p311
(lp312
(dp313
Voff
p314
(dp315
Voverflow
p316
I1
sVtime
p317
I1770
ssVcharge
p318
(dp319
Voverflow
p320
I0
sVcycles
p321
I53
ssVoverall
p322
(dp323
Voverflow
p324
I2
sVtime
p325
I-17338
ssa(dp326
Voff
p327
(dp328
Voverflow
p329
I0
sVtime
p330
I4629
ssVcharge
p331
(dp332
Voverflow
p333
I0
sVcycles
p334
I7
ssVoverall
p335
(dp336
Voverflow
p337
I0
sVtime
p338
I6236
ssasVoff
p339
(dp340
Voverflow
p341
I1
sVtime
p342
I9012
ssa(dp343
Voverall
p344
(dp345
Voverflow
p346
I2
sVtime
p347
I-3476
ssVcharge
p348
(dp349
Voverflow
p350
I0
sVcycles
p351
I66
ssVsections
p352
(lp353
(dp354
Voff
p355
(dp356
Voverflow
p357
I2
sVtime
p358
I-27407
ssVcharge
p359
(dp360
Voverflow
p361
I0
sVcycles
p362
I55
ssVoverall
p363
(dp364
Voverflow
p365
I2
sVtime
p366
I-13670
ssa(dp367
Voff
p368
(dp369
Voverflow
p370
I0
sVtime
p371
I5005
ssVcharge
p372
(dp373
Voverflow
p374
I0
sVcycles
p375
I7
ssVoverall
p376
(dp377
Voverflow
p378
I0
sVtime
p379
I6551
ssasVoff
p380
(dp381
Voverflow
p382
I2
sVtime
p383
I-19596
ssa(dp384
Voverall
p385
(dp386
Voverflow
p387
I2
sVtime
p388
I-6279
ssVcharge
p389
(dp390
Voverflow
p391
I0
sVcycles
p392
I65
ssVsections
p393
(lp394
(dp395
Voff
p396
(dp397
Voverflow
p398
I1
sVtime
p399
I2910
ssVcharge
p400
(dp401
Voverflow
p402
I0
sVcycles
p403
I54
ssVoverall
p404
(dp405
Voverflow
p406
I2
sVtime
p407
I-16091
ssa(dp408
Voff
p409
(dp410
Voverflow
p411
I0
sVtime
p412
I4750
ssVcharge
p413
(dp414
Voverflow
p415
I0
sVcycles
p416
I7
ssVoverall
p417
(dp418
Voverflow
p419
I0
sVtime
p420
I6355
ssasVoff
p421
(dp422
Voverflow
p423
I1
sVtime
p424
I10258
ssa(dp425
Voverall
p426
(dp427
Voverflow
p428
I2
sVtime
p429
I-6041
ssVcharge
p430
(dp431
Voverflow
p432
I0
sVcycles
p433
I65
ssVsections
p434
(lp435
(dp436
Voff
p437
(dp438
Voverflow
p439
I1
sVtime
p440
I3254
ssVcharge
p441
(dp442
Voverflow
p443
I0
sVcycles
p444
I54
ssVoverall
p445
(dp446
Voverflow
p447
I2
sVtime
p448
I-15763
ssa(dp449
Voff
p450
(dp451
Voverflow
p452
I0
sVtime
p453
I4636
ssVcharge
p454
(dp455
Voverflow
p456
I0
sVcycles
p457
I7
ssVoverall
p458
(dp459
Voverflow
p460
I0
sVtime
p461
I6232
ssasVoff
p462
(dp463
Voverflow
p464
I2
sVtime
p465
I-22240
ssasVeid
p466
I19
sVtile_size
p467
I32
sVbackend
p468
Vlea_fir
p469
s.