(dp0
Vlea
p1
I01
sVcommands
p2
(lp3
Vrm bld/gcc/*.{out,o,d}
p4
aVfind ext/libdnn -name '*.a' -or -name '*.o' | xargs rm
p5
aVfind ext/libdsp -name '*.a' -or -name '*.o' | xargs rm
p6
aVmake -j4 bld/gcc/all TARGET=har BACKEND=lea TRIALS=11 MAT_BUF_SIZE=0x310 LAYER_BUF_SIZE=0x3000 TILE_SIZE=256 DMA=0
p7
asVtarget
p8
Vhar
p9
sVdma
p10
I0
sS'mem'
p11
S':020000040003F7\n:10A00000010001000000010001000000010001004A\n:10A01000000001000100000001000100000001003B\n:10A02000010000000100010000000100010000002B\n:10A03000010001000000010001000000010001001A\n:00000001FF\n'
p12
sS'trials'
p13
(lp14
(dp15
Voverall
p16
(dp17
Voverflow
p18
I1
sVtime
p19
I12150
ssVcharge
p20
(dp21
Voverflow
p22
I0
sVcycles
p23
I50
ssVsections
p24
(lp25
(dp26
Voff
p27
(dp28
Voverflow
p29
I1
sVtime
p30
I-7351
ssVcharge
p31
(dp32
Voverflow
p33
I0
sVcycles
p34
I40
ssVoverall
p35
(dp36
Voverflow
p37
I1
sVtime
p38
I3451
ssa(dp39
Voff
p40
(dp41
Voverflow
p42
I0
sVtime
p43
I3868
ssVcharge
p44
(dp45
Voverflow
p46
I0
sVcycles
p47
I6
ssVoverall
p48
(dp49
Voverflow
p50
I0
sVtime
p51
I5305
ssasVoff
p52
(dp53
Voverflow
p54
I1
sVtime
p55
I-953
ssa(dp56
Voverall
p57
(dp58
Voverflow
p59
I1
sVtime
p60
I11247
ssVcharge
p61
(dp62
Voverflow
p63
I0
sVcycles
p64
I49
ssVsections
p65
(lp66
(dp67
Voff
p68
(dp69
Voverflow
p70
I1
sVtime
p71
I-8002
ssVcharge
p72
(dp73
Voverflow
p74
I0
sVcycles
p75
I39
ssVoverall
p76
(dp77
Voverflow
p78
I1
sVtime
p79
I2554
ssa(dp80
Voff
p81
(dp82
Voverflow
p83
I0
sVtime
p84
I3847
ssVcharge
p85
(dp86
Voverflow
p87
I0
sVcycles
p88
I6
ssVoverall
p89
(dp90
Voverflow
p91
I0
sVtime
p92
I5280
ssasVoff
p93
(dp94
Voverflow
p95
I1
sVtime
p96
I-1606
ssa(dp97
Voverall
p98
(dp99
Voverflow
p100
I1
sVtime
p101
I10489
ssVcharge
p102
(dp103
Voverflow
p104
I0
sVcycles
p105
I49
ssVsections
p106
(lp107
(dp108
Voff
p109
(dp110
Voverflow
p111
I1
sVtime
p112
I-8719
ssVcharge
p113
(dp114
Voverflow
p115
I0
sVcycles
p116
I39
ssVoverall
p117
(dp118
Voverflow
p119
I1
sVtime
p120
I1963
ssa(dp121
Voff
p122
(dp123
Voverflow
p124
I0
sVtime
p125
I3698
ssVcharge
p126
(dp127
Voverflow
p128
I0
sVcycles
p129
I6
ssVoverall
p130
(dp131
Voverflow
p132
I0
sVtime
p133
I5179
ssasVoff
p134
(dp135
Voverflow
p136
I1
sVtime
p137
I-2542
ssa(dp138
Voverall
p139
(dp140
Voverflow
p141
I1
sVtime
p142
I12133
ssVcharge
p143
(dp144
Voverflow
p145
I0
sVcycles
p146
I50
ssVsections
p147
(lp148
(dp149
Voff
p150
(dp151
Voverflow
p152
I1
sVtime
p153
I-7965
ssVcharge
p154
(dp155
Voverflow
p156
I0
sVcycles
p157
I39
ssVoverall
p158
(dp159
Voverflow
p160
I1
sVtime
p161
I2563
ssa(dp162
Voff
p163
(dp164
Voverflow
p165
I0
sVtime
p166
I4535
ssVcharge
p167
(dp168
Voverflow
p169
I0
sVcycles
p170
I7
ssVoverall
p171
(dp172
Voverflow
p173
I0
sVtime
p174
I6162
ssasVoff
p175
(dp176
Voverflow
p177
I1
sVtime
p178
I-885
ssa(dp179
Voverall
p180
(dp181
Voverflow
p182
I2
sVtime
p183
I-19475
ssVcharge
p184
(dp185
Voverflow
p186
I0
sVcycles
p187
I51
ssVsections
p188
(lp189
(dp190
Voff
p191
(dp192
Voverflow
p193
I1
sVtime
p194
I-7009
ssVcharge
p195
(dp196
Voverflow
p197
I0
sVcycles
p198
I40
ssVoverall
p199
(dp200
Voverflow
p201
I1
sVtime
p202
I3678
ssa(dp203
Voff
p204
(dp205
Voverflow
p206
I0
sVtime
p207
I4559
ssVcharge
p208
(dp209
Voverflow
p210
I0
sVcycles
p211
I7
ssVoverall
p212
(dp213
Voverflow
p214
I0
sVtime
p215
I6188
ssasVoff
p216
(dp217
Voverflow
p218
I1
sVtime
p219
I119
ssa(dp220
Voverall
p221
(dp222
Voverflow
p223
I1
sVtime
p224
I12596
ssVcharge
p225
(dp226
Voverflow
p227
I0
sVcycles
p228
I50
ssVsections
p229
(lp230
(dp231
Voff
p232
(dp233
Voverflow
p234
I1
sVtime
p235
I-6713
ssVcharge
p236
(dp237
Voverflow
p238
I0
sVcycles
p239
I40
ssVoverall
p240
(dp241
Voverflow
p242
I1
sVtime
p243
I3906
ssa(dp244
Voff
p245
(dp246
Voverflow
p247
I0
sVtime
p248
I3855
ssVcharge
p249
(dp250
Voverflow
p251
I0
sVcycles
p252
I6
ssVoverall
p253
(dp254
Voverflow
p255
I0
sVtime
p256
I5294
ssasVoff
p257
(dp258
Voverflow
p259
I1
sVtime
p260
I-323
ssa(dp261
Voverall
p262
(dp263
Voverflow
p264
I2
sVtime
p265
I-22063
ssVcharge
p266
(dp267
Voverflow
p268
I0
sVcycles
p269
I49
ssVsections
p270
(lp271
(dp272
Voff
p273
(dp274
Voverflow
p275
I1
sVtime
p276
I-8480
ssVcharge
p277
(dp278
Voverflow
p279
I0
sVcycles
p280
I39
ssVoverall
p281
(dp282
Voverflow
p283
I1
sVtime
p284
I2143
ssa(dp285
Voff
p286
(dp287
Voverflow
p288
I0
sVtime
p289
I3751
ssVcharge
p290
(dp291
Voverflow
p292
I0
sVcycles
p293
I6
ssVoverall
p294
(dp295
Voverflow
p296
I1
sVtime
p297
I-27546
ssasVoff
p298
(dp299
Voverflow
p300
I1
sVtime
p301
I-2261
ssa(dp302
Voverall
p303
(dp304
Voverflow
p305
I1
sVtime
p306
I10956
ssVcharge
p307
(dp308
Voverflow
p309
I0
sVcycles
p310
I49
ssVsections
p311
(lp312
(dp313
Voff
p314
(dp315
Voverflow
p316
I1
sVtime
p317
I-8313
ssVcharge
p318
(dp319
Voverflow
p320
I0
sVcycles
p321
I39
ssVoverall
p322
(dp323
Voverflow
p324
I1
sVtime
p325
I2294
ssa(dp326
Voff
p327
(dp328
Voverflow
p329
I0
sVtime
p330
I3825
ssVcharge
p331
(dp332
Voverflow
p333
I0
sVcycles
p334
I6
ssVoverall
p335
(dp336
Voverflow
p337
I0
sVtime
p338
I5283
ssasVoff
p339
(dp340
Voverflow
p341
I1
sVtime
p342
I-1977
ssa(dp343
Voverall
p344
(dp345
Voverflow
p346
I1
sVtime
p347
I11252
ssVcharge
p348
(dp349
Voverflow
p350
I0
sVcycles
p351
I49
ssVsections
p352
(lp353
(dp354
Voff
p355
(dp356
Voverflow
p357
I1
sVtime
p358
I-7963
ssVcharge
p359
(dp360
Voverflow
p361
I0
sVcycles
p362
I39
ssVoverall
p363
(dp364
Voverflow
p365
I1
sVtime
p366
I2581
ssa(dp367
Voff
p368
(dp369
Voverflow
p370
I0
sVtime
p371
I3835
ssVcharge
p372
(dp373
Voverflow
p374
I0
sVcycles
p375
I6
ssVoverall
p376
(dp377
Voverflow
p378
I0
sVtime
p379
I5283
ssasVoff
p380
(dp381
Voverflow
p382
I1
sVtime
p383
I-1601
ssa(dp384
Voverall
p385
(dp386
Voverflow
p387
I2
sVtime
p388
I-21454
ssVcharge
p389
(dp390
Voverflow
p391
I0
sVcycles
p392
I49
ssVsections
p393
(lp394
(dp395
Voff
p396
(dp397
Voverflow
p398
I1
sVtime
p399
I-7885
ssVcharge
p400
(dp401
Voverflow
p402
I0
sVcycles
p403
I39
ssVoverall
p404
(dp405
Voverflow
p406
I1
sVtime
p407
I2639
ssa(dp408
Voff
p409
(dp410
Voverflow
p411
I0
sVtime
p412
I3831
ssVcharge
p413
(dp414
Voverflow
p415
I0
sVcycles
p416
I6
ssVoverall
p417
(dp418
Voverflow
p419
I0
sVtime
p420
I5275
ssasVoff
p421
(dp422
Voverflow
p423
I1
sVtime
p424
I-1514
ssa(dp425
Voverall
p426
(dp427
Voverflow
p428
I1
sVtime
p429
I13416
ssVcharge
p430
(dp431
Voverflow
p432
I0
sVcycles
p433
I51
ssVsections
p434
(lp435
(dp436
Voff
p437
(dp438
Voverflow
p439
I1
sVtime
p440
I-6858
ssVcharge
p441
(dp442
Voverflow
p443
I0
sVcycles
p444
I40
ssVoverall
p445
(dp446
Voverflow
p447
I1
sVtime
p448
I3781
ssa(dp449
Voff
p450
(dp451
Voverflow
p452
I0
sVtime
p453
I4559
ssVcharge
p454
(dp455
Voverflow
p456
I0
sVcycles
p457
I7
ssVoverall
p458
(dp459
Voverflow
p460
I0
sVtime
p461
I6202
ssasVoff
p462
(dp463
Voverflow
p464
I1
sVtime
p465
I283
ssasVeid
p466
I22
sVtile_size
p467
I256
sVbackend
p468
Vlea_fir
p469
s.