(dp0
Vlea
p1
I00
sVcommands
p2
(lp3
Vrm bld/gcc/*.{out,o,d}
p4
aVfind ext/libdnn -name '*.a' -or -name '*.o' | xargs rm
p5
aVmake -j4 bld/gcc/all TARGET=okg BACKEND=flex TRIALS=11 MAT_BUF_SIZE=0x200 LAYER_BUF_SIZE=0x1d10
p6
asVtarget
p7
Vokg
p8
sVdma
p9
I0
sS'mem'
p10
S':020000040003F7\n:10A000000100010001000100010001000100010048\n:10A010000100010001000100010003001300020023\n:10A020000100010001000100010001000100010028\n:10A030000100010001000100160003000100010001\n:00000001FF\n'
p11
sS'trials'
p12
(lp13
(dp14
Voverall
p15
(dp16
Voverflow
p17
I6
sVtime
p18
I-5186
ssVcharge
p19
(dp20
Voverflow
p21
I0
sVcycles
p22
I208
ssVsections
p23
(lp24
(dp25
Voff
p26
(dp27
Voverflow
p28
I4
sVtime
p29
I-17168
ssVcharge
p30
(dp31
Voverflow
p32
I0
sVcycles
p33
I170
ssVoverall
p34
(dp35
Voverflow
p36
I5
sVtime
p37
I-8072
ssa(dp38
Voff
p39
(dp40
Voverflow
p41
I0
sVtime
p42
I24991
ssVcharge
p43
(dp44
Voverflow
p45
I0
sVcycles
p46
I35
ssVoverall
p47
(dp48
Voverflow
p49
I1
sVtime
p50
I163
ssasVoff
p51
(dp52
Voverflow
p53
I4
sVtime
p54
I9880
ssa(dp55
Voverall
p56
(dp57
Voverflow
p58
I5
sVtime
p59
I23352
ssVcharge
p60
(dp61
Voverflow
p62
I0
sVcycles
p63
I206
ssVsections
p64
(lp65
(dp66
Voff
p67
(dp68
Voverflow
p69
I4
sVtime
p70
I-23569
ssVcharge
p71
(dp72
Voverflow
p73
I0
sVcycles
p74
I167
ssVoverall
p75
(dp76
Voverflow
p77
I4
sVtime
p78
I18297
ssa(dp79
Voff
p80
(dp81
Voverflow
p82
I1
sVtime
p83
I-5727
ssVcharge
p84
(dp85
Voverflow
p86
I0
sVcycles
p87
I36
ssVoverall
p88
(dp89
Voverflow
p90
I1
sVtime
p91
I2225
ssasVoff
p92
(dp93
Voverflow
p94
I5
sVtime
p95
I-27116
ssa(dp96
Voverall
p97
(dp98
Voverflow
p99
I6
sVtime
p100
I935
ssVcharge
p101
(dp102
Voverflow
p103
I0
sVcycles
p104
I211
ssVsections
p105
(lp106
(dp107
Voff
p108
(dp109
Voverflow
p110
I3
sVtime
p111
I20892
ssVcharge
p112
(dp113
Voverflow
p114
I0
sVcycles
p115
I173
ssVoverall
p116
(dp117
Voverflow
p118
I5
sVtime
p119
I-2711
ssa(dp120
Voff
p121
(dp122
Voverflow
p123
I1
sVtime
p124
I-6926
ssVcharge
p125
(dp126
Voverflow
p127
I0
sVcycles
p128
I35
ssVoverall
p129
(dp130
Voverflow
p131
I1
sVtime
p132
I935
ssasVoff
p133
(dp134
Voverflow
p135
I4
sVtime
p136
I16029
ssa(dp137
Voverall
p138
(dp139
Voverflow
p140
I6
sVtime
p141
I1670
ssVcharge
p142
(dp143
Voverflow
p144
I0
sVcycles
p145
I212
ssVsections
p146
(lp147
(dp148
Voff
p149
(dp150
Voverflow
p151
I4
sVtime
p152
I-11661
ssVcharge
p153
(dp154
Voverflow
p155
I0
sVcycles
p156
I173
ssVoverall
p157
(dp158
Voverflow
p159
I4
sVtime
p160
I30344
ssa(dp161
Voff
p162
(dp163
Voverflow
p164
I1
sVtime
p165
I-6680
ssVcharge
p166
(dp167
Voverflow
p168
I0
sVcycles
p169
I36
ssVoverall
p170
(dp171
Voverflow
p172
I1
sVtime
p173
I1376
ssasVoff
p174
(dp175
Voverflow
p176
I5
sVtime
p177
I-16289
ssa(dp178
Voverall
p179
(dp180
Voverflow
p181
I5
sVtime
p182
I25913
ssVcharge
p183
(dp184
Voverflow
p185
I0
sVcycles
p186
I207
ssVsections
p187
(lp188
(dp189
Voff
p190
(dp191
Voverflow
p192
I3
sVtime
p193
I17297
ssVcharge
p194
(dp195
Voverflow
p196
I0
sVcycles
p197
I171
ssVoverall
p198
(dp199
Voverflow
p200
I4
sVtime
p201
I26443
ssa(dp202
Voff
p203
(dp204
Voverflow
p205
I1
sVtime
p206
I-11112
ssVcharge
p207
(dp208
Voverflow
p209
I0
sVcycles
p210
I33
ssVoverall
p211
(dp212
Voverflow
p213
I1
sVtime
p214
I-3229
ssasVoff
p215
(dp216
Voverflow
p217
I4
sVtime
p218
I8239
ssa(dp219
Voverall
p220
(dp221
Voverflow
p222
I7
sVtime
p223
I-18759
ssVcharge
p224
(dp225
Voverflow
p226
I0
sVcycles
p227
I218
ssVsections
p228
(lp229
(dp230
Voff
p231
(dp232
Voverflow
p233
I4
sVtime
p234
I-1485
ssVcharge
p235
(dp236
Voverflow
p237
I0
sVcycles
p238
I178
ssVoverall
p239
(dp240
Voverflow
p241
I5
sVtime
p242
I7645
ssa(dp243
Voff
p244
(dp245
Voverflow
p246
I1
sVtime
p247
I-4571
ssVcharge
p248
(dp249
Voverflow
p250
I0
sVcycles
p251
I37
ssVoverall
p252
(dp253
Voverflow
p254
I1
sVtime
p255
I3499
ssasVoff
p256
(dp257
Voverflow
p258
I5
sVtime
p259
I-3837
ssa(dp260
Voverall
p261
(dp262
Voverflow
p263
I6
sVtime
p264
I29
ssVcharge
p265
(dp266
Voverflow
p267
I0
sVcycles
p268
I211
ssVsections
p269
(lp270
(dp271
Voff
p272
(dp273
Voverflow
p274
I4
sVtime
p275
I-10288
ssVcharge
p276
(dp277
Voverflow
p278
I0
sVcycles
p279
I174
ssVoverall
p280
(dp281
Voverflow
p282
I5
sVtime
p283
I-1066
ssa(dp284
Voff
p285
(dp286
Voverflow
p287
I0
sVtime
p288
I23241
ssVcharge
p289
(dp290
Voverflow
p291
I0
sVcycles
p292
I34
ssVoverall
p293
(dp294
Voverflow
p295
I1
sVtime
p296
I-1580
ssasVoff
p297
(dp298
Voverflow
p299
I4
sVtime
p300
I14969
ssa(dp301
Voverall
p302
(dp303
Voverflow
p304
I6
sVtime
p305
I3983
ssVcharge
p306
(dp307
Voverflow
p308
I0
sVcycles
p309
I214
ssVsections
p310
(lp311
(dp312
Voff
p313
(dp314
Voverflow
p315
I4
sVtime
p316
I-7353
ssVcharge
p317
(dp318
Voverflow
p319
I0
sVcycles
p320
I176
ssVoverall
p321
(dp322
Voverflow
p323
I5
sVtime
p324
I1849
ssa(dp325
Voff
p326
(dp327
Voverflow
p328
I1
sVtime
p329
I-8512
ssVcharge
p330
(dp331
Voverflow
p332
I0
sVcycles
p333
I35
ssVoverall
p334
(dp335
Voverflow
p336
I1
sVtime
p337
I-515
ssasVoff
p338
(dp339
Voverflow
p340
I5
sVtime
p341
I-13887
ssa(dp342
Voverall
p343
(dp344
Voverflow
p345
I6
sVtime
p346
I-8921
ssVcharge
p347
(dp348
Voverflow
p349
I0
sVcycles
p350
I206
ssVsections
p351
(lp352
(dp353
Voff
p354
(dp355
Voverflow
p356
I4
sVtime
p357
I-14890
ssVcharge
p358
(dp359
Voverflow
p360
I0
sVcycles
p361
I171
ssVoverall
p362
(dp363
Voverflow
p364
I5
sVtime
p365
I-5784
ssa(dp366
Voff
p367
(dp368
Voverflow
p369
I0
sVtime
p370
I19228
ssVcharge
p371
(dp372
Voverflow
p373
I0
sVcycles
p374
I32
ssVoverall
p375
(dp376
Voverflow
p377
I1
sVtime
p378
I-5583
ssasVoff
p379
(dp380
Voverflow
p381
I4
sVtime
p382
I6081
ssa(dp383
Voverall
p384
(dp385
Voverflow
p386
I6
sVtime
p387
I-2339
ssVcharge
p388
(dp389
Voverflow
p390
I0
sVcycles
p391
I210
ssVsections
p392
(lp393
(dp394
Voff
p395
(dp396
Voverflow
p397
I4
sVtime
p398
I-12449
ssVcharge
p399
(dp400
Voverflow
p401
I0
sVcycles
p402
I173
ssVoverall
p403
(dp404
Voverflow
p405
I5
sVtime
p406
I-3240
ssa(dp407
Voff
p408
(dp409
Voverflow
p410
I1
sVtime
p411
I-9742
ssVcharge
p412
(dp413
Voverflow
p414
I0
sVcycles
p415
I34
ssVoverall
p416
(dp417
Voverflow
p418
I1
sVtime
p419
I-1833
ssasVoff
p420
(dp421
Voverflow
p422
I5
sVtime
p423
I-20117
ssa(dp424
Voverall
p425
(dp426
Voverflow
p427
I5
sVtime
p428
I15567
ssVcharge
p429
(dp430
Voverflow
p431
I0
sVcycles
p432
I202
ssVsections
p433
(lp434
(dp435
Voff
p436
(dp437
Voverflow
p438
I3
sVtime
p439
I7000
ssVcharge
p440
(dp441
Voverflow
p442
I0
sVcycles
p443
I166
ssVoverall
p444
(dp445
Voverflow
p446
I4
sVtime
p447
I16171
ssa(dp448
Voff
p449
(dp450
Voverflow
p451
I1
sVtime
p452
I-10982
ssVcharge
p453
(dp454
Voverflow
p455
I0
sVcycles
p456
I33
ssVoverall
p457
(dp458
Voverflow
p459
I1
sVtime
p460
I-3144
ssasVoff
p461
(dp462
Voverflow
p463
I4
sVtime
p464
I-2121
ssasVeid
p465
I37
sVtile_size
p466
I0
sVbackend
p467
Vflex
p468
s.