(dp0
Vlea
p1
I00
sVcommands
p2
(lp3
Vrm bld/gcc/*.{out,o,d}
p4
aVfind ext/libdnn -name '*.a' -or -name '*.o' | xargs rm
p5
aVmake -j4 bld/gcc/all TARGET=okg BACKEND=tile TRIALS=11 MAT_BUF_SIZE=0x200 LAYER_BUF_SIZE=0x1d10 TILE_SIZE=8
p6
asVtarget
p7
Vokg
p8
sVdma
p9
I0
sS'mem'
p10
S':020000040003F7\n:10A000000100010001000100010001000100010048\n:10A010000100010001000100010003001300020023\n:10A020000100010001000100010001000100010028\n:10A030000100010001000100160003000100010001\n:00000001FF\n'
p11
sS'trials'
p12
(lp13
(dp14
Voverall
p15
(dp16
Voverflow
p17
I47
sVtime
p18
I-14660
ssVcharge
p19
(dp20
Voverflow
p21
I1
sVcycles
p22
I-31078
ssVsections
p23
(lp24
(dp25
Voff
p26
(dp27
Voverflow
p28
I27
sVtime
p29
I-7834
ssVcharge
p30
(dp31
Voverflow
p32
I1
sVcycles
p33
I-31458
ssVoverall
p34
(dp35
Voverflow
p36
I36
sVtime
p37
I6111
ssa(dp38
Voff
p39
(dp40
Voverflow
p41
I7
sVtime
p42
I18258
ssVcharge
p43
(dp44
Voverflow
p45
I0
sVcycles
p46
I374
ssVoverall
p47
(dp48
Voverflow
p49
I11
sVtime
p50
I-26049
ssasVoff
p51
(dp52
Voverflow
p53
I34
sVtime
p54
I14410
ssa(dp55
Voverall
p56
(dp57
Voverflow
p58
I46
sVtime
p59
I25089
ssVcharge
p60
(dp61
Voverflow
p62
I0
sVcycles
p63
I1689
ssVsections
p64
(lp65
(dp66
Voff
p67
(dp68
Voverflow
p69
I28
sVtime
p70
I-23067
ssVcharge
p71
(dp72
Voverflow
p73
I0
sVcycles
p74
I1315
ssVoverall
p75
(dp76
Voverflow
p77
I36
sVtime
p78
I23444
ssa(dp79
Voff
p80
(dp81
Voverflow
p82
I7
sVtime
p83
I7917
ssVcharge
p84
(dp85
Voverflow
p86
I0
sVcycles
p87
I368
ssVoverall
p88
(dp89
Voverflow
p90
I10
sVtime
p91
I-3476
ssasVoff
p92
(dp93
Voverflow
p94
I35
sVtime
p95
I-11349
ssa(dp96
Voverall
p97
(dp98
Voverflow
p99
I44
sVtime
p100
I-1299
ssVcharge
p101
(dp102
Voverflow
p103
I0
sVcycles
p104
I1640
ssVsections
p105
(lp106
(dp107
Voff
p108
(dp109
Voverflow
p110
I25
sVtime
p111
I5081
ssVcharge
p112
(dp113
Voverflow
p114
I0
sVcycles
p115
I1279
ssVoverall
p116
(dp117
Voverflow
p118
I35
sVtime
p119
I-13621
ssa(dp120
Voff
p121
(dp122
Voverflow
p123
I7
sVtime
p124
I-13273
ssVcharge
p125
(dp126
Voverflow
p127
I0
sVcycles
p128
I356
ssVoverall
p129
(dp130
Voverflow
p131
I9
sVtime
p132
I8162
ssasVoff
p133
(dp134
Voverflow
p135
I32
sVtime
p136
I-5206
ssa(dp137
Voverall
p138
(dp139
Voverflow
p140
I46
sVtime
p141
I-6441
ssVcharge
p142
(dp143
Voverflow
p144
I0
sVcycles
p145
I1669
ssVsections
p146
(lp147
(dp148
Voff
p149
(dp150
Voverflow
p151
I27
sVtime
p152
I16181
ssVcharge
p153
(dp154
Voverflow
p155
I0
sVcycles
p156
I1298
ssVoverall
p157
(dp158
Voverflow
p159
I36
sVtime
p160
I-2646
ssa(dp161
Voff
p162
(dp163
Voverflow
p164
I7
sVtime
p165
I3450
ssVcharge
p166
(dp167
Voverflow
p168
I0
sVcycles
p169
I366
ssVoverall
p170
(dp171
Voverflow
p172
I10
sVtime
p173
I-7982
ssasVoff
p174
(dp175
Voverflow
p176
I34
sVtime
p177
I22657
ssa(dp178
Voverall
p179
(dp180
Voverflow
p181
I43
sVtime
p182
I-7547
ssVcharge
p183
(dp184
Voverflow
p185
I0
sVcycles
p186
I1618
ssVsections
p187
(lp188
(dp189
Voff
p190
(dp191
Voverflow
p192
I23
sVtime
p193
I7140
ssVcharge
p194
(dp195
Voverflow
p196
I0
sVcycles
p197
I1243
ssVoverall
p198
(dp199
Voverflow
p200
I33
sVtime
p201
I-11985
ssa(dp202
Voff
p203
(dp204
Voverflow
p205
I7
sVtime
p206
I11842
ssVcharge
p207
(dp208
Voverflow
p209
I0
sVcycles
p210
I370
ssVoverall
p211
(dp212
Voverflow
p213
I10
sVtime
p214
I299
ssasVoff
p215
(dp216
Voverflow
p217
I30
sVtime
p218
I21935
ssa(dp219
Voverall
p220
(dp221
Voverflow
p222
I48
sVtime
p223
I-5703
ssVcharge
p224
(dp225
Voverflow
p226
I0
sVcycles
p227
I1704
ssVsections
p228
(lp229
(dp230
Voff
p231
(dp232
Voverflow
p233
I26
sVtime
p234
I8110
ssVcharge
p235
(dp236
Voverflow
p237
I0
sVcycles
p238
I1299
ssVoverall
p239
(dp240
Voverflow
p241
I36
sVtime
p242
I-10619
ssa(dp243
Voff
p244
(dp245
Voverflow
p246
I9
sVtime
p247
I10826
ssVcharge
p248
(dp249
Voverflow
p250
I0
sVcycles
p251
I399
ssVoverall
p252
(dp253
Voverflow
p254
I12
sVtime
p255
I-611
ssasVoff
p256
(dp257
Voverflow
p258
I36
sVtime
p259
I-9582
ssa(dp260
Voverall
p261
(dp262
Voverflow
p263
I55
sVtime
p264
I-11145
ssVcharge
p265
(dp266
Voverflow
p267
I0
sVcycles
p268
I1804
ssVsections
p269
(lp270
(dp271
Voff
p272
(dp273
Voverflow
p274
I33
sVtime
p275
I-8962
ssVcharge
p276
(dp277
Voverflow
p278
I0
sVcycles
p279
I1394
ssVoverall
p280
(dp281
Voverflow
p282
I42
sVtime
p283
I5202
ssa(dp284
Voff
p285
(dp286
Voverflow
p287
I9
sVtime
p288
I21728
ssVcharge
p289
(dp290
Voverflow
p291
I0
sVcycles
p292
I404
ssVoverall
p293
(dp294
Voverflow
p295
I13
sVtime
p296
I-22364
ssasVoff
p297
(dp298
Voverflow
p299
I42
sVtime
p300
I17563
ssa(dp301
Voverall
p302
(dp303
Voverflow
p304
I50
sVtime
p305
I5055
ssVcharge
p306
(dp307
Voverflow
p308
I0
sVcycles
p309
I1745
ssVsections
p310
(lp311
(dp312
Voff
p313
(dp314
Voverflow
p315
I29
sVtime
p316
I17693
ssVcharge
p317
(dp318
Voverflow
p319
I0
sVcycles
p320
I1352
ssVoverall
p321
(dp322
Voverflow
p323
I39
sVtime
p324
I-872
ssa(dp325
Voff
p326
(dp327
Voverflow
p328
I9
sVtime
p329
I-20944
ssVcharge
p330
(dp331
Voverflow
p332
I0
sVcycles
p333
I387
ssVoverall
p334
(dp335
Voverflow
p336
I11
sVtime
p337
I432
ssasVoff
p338
(dp339
Voverflow
p340
I38
sVtime
p341
I975
ssa(dp342
Voverall
p343
(dp344
Voverflow
p345
I48
sVtime
p346
I14235
ssVcharge
p347
(dp348
Voverflow
p349
I0
sVcycles
p350
I1718
ssVsections
p351
(lp352
(dp353
Voff
p354
(dp355
Voverflow
p356
I28
sVtime
p357
I-2900
ssVcharge
p358
(dp359
Voverflow
p360
I0
sVcycles
p361
I1327
ssVoverall
p362
(dp363
Voverflow
p364
I37
sVtime
p365
I11116
ssa(dp366
Voff
p367
(dp368
Voverflow
p369
I8
sVtime
p370
I8975
ssVcharge
p371
(dp372
Voverflow
p373
I0
sVcycles
p374
I385
ssVoverall
p375
(dp376
Voverflow
p377
I11
sVtime
p378
I-2382
ssasVoff
p379
(dp380
Voverflow
p381
I36
sVtime
p382
I10305
ssa(dp383
Voverall
p384
(dp385
Voverflow
p386
I49
sVtime
p387
I-8536
ssVcharge
p388
(dp389
Voverflow
p390
I0
sVcycles
p391
I1720
ssVsections
p392
(lp393
(dp394
Voff
p395
(dp396
Voverflow
p397
I28
sVtime
p398
I-14253
ssVcharge
p399
(dp400
Voverflow
p401
I0
sVcycles
p402
I1319
ssVoverall
p403
(dp404
Voverflow
p405
I37
sVtime
p406
I-262
ssa(dp407
Voff
p408
(dp409
Voverflow
p410
I9
sVtime
p411
I-2207
ssVcharge
p412
(dp413
Voverflow
p414
I0
sVcycles
p415
I395
ssVoverall
p416
(dp417
Voverflow
p418
I11
sVtime
p419
I19222
ssasVoff
p420
(dp421
Voverflow
p422
I37
sVtime
p423
I-12498
ssa(dp424
Voverall
p425
(dp426
Voverflow
p427
I48
sVtime
p428
I-2142
ssVcharge
p429
(dp430
Voverflow
p431
I0
sVcycles
p432
I1706
ssVsections
p433
(lp434
(dp435
Voff
p436
(dp437
Voverflow
p438
I28
sVtime
p439
I10567
ssVcharge
p440
(dp441
Voverflow
p442
I0
sVcycles
p443
I1330
ssVoverall
p444
(dp445
Voverflow
p446
I38
sVtime
p447
I-8218
ssa(dp448
Voff
p449
(dp450
Voverflow
p451
I7
sVtime
p452
I12340
ssVcharge
p453
(dp454
Voverflow
p455
I0
sVcycles
p456
I370
ssVoverall
p457
(dp458
Voverflow
p459
I10
sVtime
p460
I843
ssasVoff
p461
(dp462
Voverflow
p463
I35
sVtime
p464
I26836
ssasVeid
p465
I38
sVtile_size
p466
I8
sVbackend
p467
Vtile
p468
s.