(dp0
Vlea
p1
I00
sVcommands
p2
(lp3
Vrm bld/gcc/*.{out,o,d}
p4
aVfind ext/libdnn -name '*.a' -or -name '*.o' | xargs rm
p5
aVmake -j4 bld/gcc/all TARGET=okg BACKEND=tile TRIALS=11 MAT_BUF_SIZE=0x200 LAYER_BUF_SIZE=0x1d10 TILE_SIZE=32
p6
asVtarget
p7
Vokg
p8
sVdma
p9
I0
sS'mem'
p10
S':020000040003F7\n:10A000000100010001000100010001000100010048\n:10A010000100010001000100010003001300020023\n:10A020000100010001000100010001000100010028\n:10A030000100010001000100160003000100010001\n:00000001FF\n'
p11
sS'trials'
p12
(lp13
(dp14
Voverall
p15
(dp16
Voverflow
p17
I30
sVtime
p18
I12004
ssVcharge
p19
(dp20
Voverflow
p21
I0
sVcycles
p22
I1068
ssVsections
p23
(lp24
(dp25
Voff
p26
(dp27
Voverflow
p28
I17
sVtime
p29
I13667
ssVcharge
p30
(dp31
Voverflow
p32
I0
sVcycles
p33
I808
ssVoverall
p34
(dp35
Voverflow
p36
I23
sVtime
p37
I7281
ssa(dp38
Voff
p39
(dp40
Voverflow
p41
I5
sVtime
p42
I5620
ssVcharge
p43
(dp44
Voverflow
p45
I0
sVcycles
p46
I256
ssVoverall
p47
(dp48
Voverflow
p49
I7
sVtime
p50
I1226
ssasVoff
p51
(dp52
Voverflow
p53
I22
sVtime
p54
I21854
ssa(dp55
Voverall
p56
(dp57
Voverflow
p58
I28
sVtime
p59
I341
ssVcharge
p60
(dp61
Voverflow
p62
I0
sVcycles
p63
I1029
ssVsections
p64
(lp65
(dp66
Voff
p67
(dp68
Voverflow
p69
I16
sVtime
p70
I-23746
ssVcharge
p71
(dp72
Voverflow
p73
I0
sVcycles
p74
I773
ssVoverall
p75
(dp76
Voverflow
p77
I21
sVtime
p78
I1980
ssa(dp79
Voff
p80
(dp81
Voverflow
p82
I5
sVtime
p83
I-725
ssVcharge
p84
(dp85
Voverflow
p86
I0
sVcycles
p87
I252
ssVoverall
p88
(dp89
Voverflow
p90
I7
sVtime
p91
I-5174
ssasVoff
p92
(dp93
Voverflow
p94
I21
sVtime
p95
I-21858
ssa(dp96
Voverall
p97
(dp98
Voverflow
p99
I29
sVtime
p100
I-17847
ssVcharge
p101
(dp102
Voverflow
p103
I0
sVcycles
p104
I1040
ssVsections
p105
(lp106
(dp107
Voff
p108
(dp109
Voverflow
p110
I15
sVtime
p111
I10434
ssVcharge
p112
(dp113
Voverflow
p114
I0
sVcycles
p115
I777
ssVoverall
p116
(dp117
Voverflow
p118
I22
sVtime
p119
I-28046
ssa(dp120
Voff
p121
(dp122
Voverflow
p123
I5
sVtime
p124
I10943
ssVcharge
p125
(dp126
Voverflow
p127
I0
sVcycles
p128
I259
ssVoverall
p129
(dp130
Voverflow
p131
I7
sVtime
p132
I6657
ssasVoff
p133
(dp134
Voverflow
p135
I20
sVtime
p136
I24007
ssa(dp137
Voverall
p138
(dp139
Voverflow
p140
I28
sVtime
p141
I-7050
ssVcharge
p142
(dp143
Voverflow
p144
I0
sVcycles
p145
I1025
ssVsections
p146
(lp147
(dp148
Voff
p149
(dp150
Voverflow
p151
I15
sVtime
p152
I-730
ssVcharge
p153
(dp154
Voverflow
p155
I0
sVcycles
p156
I767
ssVoverall
p157
(dp158
Voverflow
p159
I21
sVtime
p160
I-7723
ssa(dp161
Voff
p162
(dp163
Voverflow
p164
I5
sVtime
p165
I1554
ssVcharge
p166
(dp167
Voverflow
p168
I0
sVcycles
p169
I254
ssVoverall
p170
(dp171
Voverflow
p172
I7
sVtime
p173
I-2853
ssasVoff
p174
(dp175
Voverflow
p176
I20
sVtime
p177
I3434
ssa(dp178
Voverall
p179
(dp180
Voverflow
p181
I28
sVtime
p182
I4538
ssVcharge
p183
(dp184
Voverflow
p185
I0
sVcycles
p186
I1032
ssVsections
p187
(lp188
(dp189
Voff
p190
(dp191
Voverflow
p192
I15
sVtime
p193
I10374
ssVcharge
p194
(dp195
Voverflow
p196
I0
sVcycles
p197
I774
ssVoverall
p198
(dp199
Voverflow
p200
I21
sVtime
p201
I3588
ssa(dp202
Voff
p203
(dp204
Voverflow
p205
I5
sVtime
p206
I1932
ssVcharge
p207
(dp208
Voverflow
p209
I0
sVcycles
p210
I254
ssVoverall
p211
(dp212
Voverflow
p213
I7
sVtime
p214
I-2535
ssasVoff
p215
(dp216
Voverflow
p217
I20
sVtime
p218
I14868
ssa(dp219
Voverall
p220
(dp221
Voverflow
p222
I32
sVtime
p223
I19945
ssVcharge
p224
(dp225
Voverflow
p226
I0
sVcycles
p227
I1097
ssVsections
p228
(lp229
(dp230
Voff
p231
(dp232
Voverflow
p233
I17
sVtime
p234
I11799
ssVcharge
p235
(dp236
Voverflow
p237
I0
sVcycles
p238
I806
ssVoverall
p239
(dp240
Voverflow
p241
I23
sVtime
p242
I6193
ssa(dp243
Voff
p244
(dp245
Voverflow
p246
I8
sVtime
p247
I-18677
ssVcharge
p248
(dp249
Voverflow
p250
I0
sVcycles
p251
I287
ssVoverall
p252
(dp253
Voverflow
p254
I9
sVtime
p255
I9760
ssasVoff
p256
(dp257
Voverflow
p258
I25
sVtime
p259
I-3743
ssa(dp260
Voverall
p261
(dp262
Voverflow
p263
I32
sVtime
p264
I10403
ssVcharge
p265
(dp266
Voverflow
p267
I0
sVcycles
p268
I1092
ssVsections
p269
(lp270
(dp271
Voff
p272
(dp273
Voverflow
p274
I18
sVtime
p275
I4817
ssVcharge
p276
(dp277
Voverflow
p278
I0
sVcycles
p279
I815
ssVoverall
p280
(dp281
Voverflow
p282
I24
sVtime
p283
I-1866
ssa(dp284
Voff
p285
(dp286
Voverflow
p287
I7
sVtime
p288
I-20022
ssVcharge
p289
(dp290
Voverflow
p291
I0
sVcycles
p292
I273
ssVoverall
p293
(dp294
Voverflow
p295
I8
sVtime
p296
I8335
ssasVoff
p297
(dp298
Voverflow
p299
I25
sVtime
p300
I-12136
ssa(dp301
Voverall
p302
(dp303
Voverflow
p304
I34
sVtime
p305
I-13078
ssVcharge
p306
(dp307
Voverflow
p308
I0
sVcycles
p309
I1116
ssVsections
p310
(lp311
(dp312
Voff
p313
(dp314
Voverflow
p315
I19
sVtime
p316
I15880
ssVcharge
p317
(dp318
Voverflow
p319
I0
sVcycles
p320
I839
ssVoverall
p321
(dp322
Voverflow
p323
I25
sVtime
p324
I10044
ssa(dp325
Voff
p326
(dp327
Voverflow
p328
I6
sVtime
p329
I10131
ssVcharge
p330
(dp331
Voverflow
p332
I0
sVcycles
p333
I273
ssVoverall
p334
(dp335
Voverflow
p336
I9
sVtime
p337
I-26994
ssasVoff
p338
(dp339
Voverflow
p340
I25
sVtime
p341
I29017
ssa(dp342
Voverall
p343
(dp344
Voverflow
p345
I35
sVtime
p346
I4917
ssVcharge
p347
(dp348
Voverflow
p349
I0
sVcycles
p350
I1138
ssVsections
p351
(lp352
(dp353
Voff
p354
(dp355
Voverflow
p356
I20
sVtime
p357
I24583
ssVcharge
p358
(dp359
Voverflow
p360
I0
sVcycles
p361
I857
ssVoverall
p362
(dp363
Voverflow
p364
I26
sVtime
p365
I18687
ssa(dp366
Voff
p367
(dp368
Voverflow
p369
I7
sVtime
p370
I-13382
ssVcharge
p371
(dp372
Voverflow
p373
I0
sVcycles
p374
I277
ssVoverall
p375
(dp376
Voverflow
p377
I9
sVtime
p378
I-17748
ssasVoff
p379
(dp380
Voverflow
p381
I27
sVtime
p382
I14327
ssa(dp383
Voverall
p384
(dp385
Voverflow
p386
I33
sVtime
p387
I7022
ssVcharge
p388
(dp389
Voverflow
p390
I0
sVcycles
p391
I1111
ssVsections
p392
(lp393
(dp394
Voff
p395
(dp396
Voverflow
p397
I20
sVtime
p398
I-2426
ssVcharge
p399
(dp400
Voverflow
p401
I0
sVcycles
p402
I846
ssVoverall
p403
(dp404
Voverflow
p405
I26
sVtime
p406
I-8115
ssa(dp407
Voff
p408
(dp409
Voverflow
p410
I6
sVtime
p411
I-16850
ssVcharge
p412
(dp413
Voverflow
p414
I0
sVcycles
p415
I261
ssVoverall
p416
(dp417
Voverflow
p418
I7
sVtime
p419
I11380
ssasVoff
p420
(dp421
Voverflow
p422
I26
sVtime
p423
I-16407
ssa(dp424
Voverall
p425
(dp426
Voverflow
p427
I28
sVtime
p428
I-15345
ssVcharge
p429
(dp430
Voverflow
p431
I0
sVcycles
p432
I1021
ssVsections
p433
(lp434
(dp435
Voff
p436
(dp437
Voverflow
p438
I15
sVtime
p439
I1435
ssVcharge
p440
(dp441
Voverflow
p442
I0
sVcycles
p443
I770
ssVoverall
p444
(dp445
Voverflow
p446
I21
sVtime
p447
I-4541
ssa(dp448
Voff
p449
(dp450
Voverflow
p451
I4
sVtime
p452
I22944
ssVcharge
p453
(dp454
Voverflow
p455
I0
sVcycles
p456
I247
ssVoverall
p457
(dp458
Voverflow
p459
I7
sVtime
p460
I-14267
ssasVoff
p461
(dp462
Voverflow
p463
I19
sVtime
p464
I26913
ssasVeid
p465
I39
sVtile_size
p466
I32
sVbackend
p467
Vtile
p468
s.