(dp0
Vlea
p1
I01
sVcommands
p2
(lp3
Vrm bld/gcc/*.{out,o,d}
p4
aVfind ext/libdnn -name '*.a' -or -name '*.o' | xargs rm
p5
aVfind ext/libdsp -name '*.a' -or -name '*.o' | xargs rm
p6
aVmake -j4 bld/gcc/all TARGET=okg BACKEND=lea TRIALS=11 MAT_BUF_SIZE=0x200 LAYER_BUF_SIZE=0x1d10 TILE_SIZE=256
p7
asVtarget
p8
Vokg
p9
sVdma
p10
I2
sS'mem'
p11
S':020000040003F7\n:10A000000100010001000100010001000100010048\n:10A010000100010001000100010003001300020023\n:10A020000100010001000100010001000100010028\n:10A030000100010001000100160003000100010001\n:00000001FF\n'
p12
sS'trials'
p13
(lp14
(dp15
Voverall
p16
(dp17
Voverflow
p18
I3
sVtime
p19
I-3155
ssVcharge
p20
(dp21
Voverflow
p22
I0
sVcycles
p23
I104
ssVsections
p24
(lp25
(dp26
Voff
p27
(dp28
Voverflow
p29
I2
sVtime
p30
I-15692
ssVcharge
p31
(dp32
Voverflow
p33
I0
sVcycles
p34
I76
ssVoverall
p35
(dp36
Voverflow
p37
I2
sVtime
p38
I4678
ssa(dp39
Voff
p40
(dp41
Voverflow
p42
I1
sVtime
p43
I-16093
ssVcharge
p44
(dp45
Voverflow
p46
I0
sVcycles
p47
I25
ssVoverall
p48
(dp49
Voverflow
p50
I0
sVtime
p51
I22348
ssasVoff
p52
(dp53
Voverflow
p54
I3
sVtime
p55
I-29850
ssa(dp56
Voverall
p57
(dp58
Voverflow
p59
I3
sVtime
p60
I-6961
ssVcharge
p61
(dp62
Voverflow
p63
I0
sVcycles
p64
I102
ssVsections
p65
(lp66
(dp67
Voff
p68
(dp69
Voverflow
p70
I1
sVtime
p71
I14488
ssVcharge
p72
(dp73
Voverflow
p74
I0
sVcycles
p75
I74
ssVoverall
p76
(dp77
Voverflow
p78
I2
sVtime
p79
I1829
ssa(dp80
Voff
p81
(dp82
Voverflow
p83
I1
sVtime
p84
I-17126
ssVcharge
p85
(dp86
Voverflow
p87
I0
sVcycles
p88
I25
ssVoverall
p89
(dp90
Voverflow
p91
I1
sVtime
p92
I-11316
ssasVoff
p93
(dp94
Voverflow
p95
I2
sVtime
p96
I-767
ssa(dp97
Voverall
p98
(dp99
Voverflow
p100
I3
sVtime
p101
I-11054
ssVcharge
p102
(dp103
Voverflow
p104
I0
sVcycles
p105
I99
ssVsections
p106
(lp107
(dp108
Voff
p109
(dp110
Voverflow
p111
I1
sVtime
p112
I11324
ssVcharge
p113
(dp114
Voverflow
p115
I0
sVcycles
p116
I72
ssVoverall
p117
(dp118
Voverflow
p119
I2
sVtime
p120
I-1303
ssa(dp121
Voff
p122
(dp123
Voverflow
p124
I0
sVtime
p125
I14850
ssVcharge
p126
(dp127
Voverflow
p128
I0
sVcycles
p129
I24
ssVoverall
p130
(dp131
Voverflow
p132
I1
sVtime
p133
I-12235
ssasVoff
p134
(dp135
Voverflow
p136
I1
sVtime
p137
I27993
ssa(dp138
Voverall
p139
(dp140
Voverflow
p141
I3
sVtime
p142
I-10318
ssVcharge
p143
(dp144
Voverflow
p145
I0
sVcycles
p146
I100
ssVsections
p147
(lp148
(dp149
Voff
p150
(dp151
Voverflow
p152
I1
sVtime
p153
I11300
ssVcharge
p154
(dp155
Voverflow
p156
I0
sVcycles
p157
I72
ssVoverall
p158
(dp159
Voverflow
p160
I2
sVtime
p161
I-1379
ssa(dp162
Voff
p163
(dp164
Voverflow
p165
I0
sVtime
p166
I15552
ssVcharge
p167
(dp168
Voverflow
p169
I0
sVcycles
p170
I25
ssVoverall
p171
(dp172
Voverflow
p173
I0
sVtime
p174
I21354
ssasVoff
p175
(dp176
Voverflow
p177
I2
sVtime
p178
I-4108
ssa(dp179
Voverall
p180
(dp181
Voverflow
p182
I2
sVtime
p183
I21782
ssVcharge
p184
(dp185
Voverflow
p186
I0
sVcycles
p187
I99
ssVsections
p188
(lp189
(dp190
Voff
p191
(dp192
Voverflow
p193
I2
sVtime
p194
I-21515
ssVcharge
p195
(dp196
Voverflow
p197
I0
sVcycles
p198
I72
ssVoverall
p199
(dp200
Voverflow
p201
I2
sVtime
p202
I-1373
ssa(dp203
Voff
p204
(dp205
Voverflow
p206
I0
sVtime
p207
I15042
ssVcharge
p208
(dp209
Voverflow
p210
I0
sVcycles
p211
I24
ssVoverall
p212
(dp213
Voverflow
p214
I0
sVtime
p215
I20691
ssasVoff
p216
(dp217
Voverflow
p218
I2
sVtime
p219
I-4668
ssa(dp220
Voverall
p221
(dp222
Voverflow
p223
I3
sVtime
p224
I-6707
ssVcharge
p225
(dp226
Voverflow
p227
I0
sVcycles
p228
I102
ssVsections
p229
(lp230
(dp231
Voff
p232
(dp233
Voverflow
p234
I2
sVtime
p235
I-18679
ssVcharge
p236
(dp237
Voverflow
p238
I0
sVcycles
p239
I74
ssVoverall
p240
(dp241
Voverflow
p242
I2
sVtime
p243
I1501
ssa(dp244
Voff
p245
(dp246
Voverflow
p247
I0
sVtime
p248
I16296
ssVcharge
p249
(dp250
Voverflow
p251
I0
sVcycles
p252
I25
ssVoverall
p253
(dp254
Voverflow
p255
I1
sVtime
p256
I-10757
ssasVoff
p257
(dp258
Voverflow
p259
I2
sVtime
p260
I-494
ssa(dp261
Voverall
p262
(dp263
Voverflow
p264
I3
sVtime
p265
I-8918
ssVcharge
p266
(dp267
Voverflow
p268
I0
sVcycles
p269
I100
ssVsections
p270
(lp271
(dp272
Voff
p273
(dp274
Voverflow
p275
I2
sVtime
p276
I-19052
ssVcharge
p277
(dp278
Voverflow
p279
I0
sVcycles
p280
I73
ssVoverall
p281
(dp282
Voverflow
p283
I2
sVtime
p284
I949
ssa(dp285
Voff
p286
(dp287
Voverflow
p288
I0
sVtime
p289
I14684
ssVcharge
p290
(dp291
Voverflow
p292
I0
sVcycles
p293
I24
ssVoverall
p294
(dp295
Voverflow
p296
I1
sVtime
p297
I-12386
ssasVoff
p298
(dp299
Voverflow
p300
I2
sVtime
p301
I-2508
ssa(dp302
Voverall
p303
(dp304
Voverflow
p305
I3
sVtime
p306
I-13122
ssVcharge
p307
(dp308
Voverflow
p309
I0
sVcycles
p310
I98
ssVsections
p311
(lp312
(dp313
Voff
p314
(dp315
Voverflow
p316
I2
sVtime
p317
I-23060
ssVcharge
p318
(dp319
Voverflow
p320
I0
sVcycles
p321
I71
ssVoverall
p322
(dp323
Voverflow
p324
I2
sVtime
p325
I-2988
ssa(dp326
Voff
p327
(dp328
Voverflow
p329
I0
sVtime
p330
I14507
ssVcharge
p331
(dp332
Voverflow
p333
I0
sVcycles
p334
I24
ssVoverall
p335
(dp336
Voverflow
p337
I0
sVtime
p338
I20197
ssasVoff
p339
(dp340
Voverflow
p341
I2
sVtime
p342
I-6791
ssa(dp343
Voverall
p344
(dp345
Voverflow
p346
I2
sVtime
p347
I25445
ssVcharge
p348
(dp349
Voverflow
p350
I0
sVcycles
p351
I101
ssVsections
p352
(lp353
(dp354
Voff
p355
(dp356
Voverflow
p357
I2
sVtime
p358
I-19062
ssVcharge
p359
(dp360
Voverflow
p361
I0
sVcycles
p362
I73
ssVoverall
p363
(dp364
Voverflow
p365
I2
sVtime
p366
I927
ssa(dp367
Voff
p368
(dp369
Voverflow
p370
I0
sVtime
p371
I16243
ssVcharge
p372
(dp373
Voverflow
p374
I0
sVcycles
p375
I25
ssVoverall
p376
(dp377
Voverflow
p378
I0
sVtime
p379
I21979
ssasVoff
p380
(dp381
Voverflow
p382
I2
sVtime
p383
I-942
ssa(dp384
Voverall
p385
(dp386
Voverflow
p387
I3
sVtime
p388
I-724
ssVcharge
p389
(dp390
Voverflow
p391
I0
sVcycles
p392
I105
ssVsections
p393
(lp394
(dp395
Voff
p396
(dp397
Voverflow
p398
I2
sVtime
p399
I-14202
ssVcharge
p400
(dp401
Voverflow
p402
I0
sVcycles
p403
I76
ssVoverall
p404
(dp405
Voverflow
p406
I3
sVtime
p407
I-26896
ssa(dp408
Voff
p409
(dp410
Voverflow
p411
I0
sVtime
p412
I17765
ssVcharge
p413
(dp414
Voverflow
p415
I0
sVcycles
p416
I26
ssVoverall
p417
(dp418
Voverflow
p419
I0
sVtime
p420
I23538
ssasVoff
p421
(dp422
Voverflow
p423
I2
sVtime
p424
I5553
ssa(dp425
Voverall
p426
(dp427
Voverflow
p428
I3
sVtime
p429
I-2133
ssVcharge
p430
(dp431
Voverflow
p432
I0
sVcycles
p433
I104
ssVsections
p434
(lp435
(dp436
Voff
p437
(dp438
Voverflow
p439
I2
sVtime
p440
I-14640
ssVcharge
p441
(dp442
Voverflow
p443
I0
sVcycles
p444
I76
ssVoverall
p445
(dp446
Voverflow
p447
I3
sVtime
p448
I-27295
ssa(dp449
Voff
p450
(dp451
Voverflow
p452
I0
sVtime
p453
I16865
ssVcharge
p454
(dp455
Voverflow
p456
I0
sVcycles
p457
I25
ssVoverall
p458
(dp459
Voverflow
p460
I0
sVtime
p461
I22523
ssasVoff
p462
(dp463
Voverflow
p464
I2
sVtime
p465
I4234
ssasVeid
p466
I41
sVtile_size
p467
I256
sVbackend
p468
Vlea_fir
p469
s.