(dp0
Vlea
p1
I01
sVcommands
p2
(lp3
Vrm bld/gcc/*.{out,o,d}
p4
aVfind ext/libdnn -name '*.a' -or -name '*.o' | xargs rm
p5
aVfind ext/libdsp -name '*.a' -or -name '*.o' | xargs rm
p6
aVmake -j4 bld/gcc/all TARGET=okg BACKEND=lea TRIALS=11 MAT_BUF_SIZE=0x200 LAYER_BUF_SIZE=0x1d10 TILE_SIZE=256 DMA=0
p7
asVtarget
p8
Vokg
p9
sVdma
p10
I0
sS'mem'
p11
S':020000040003F7\n:10A000000100010001000100010001000100010048\n:10A010000100010001000100010003001300020023\n:10A020000100010001000100010001000100010028\n:10A030000100010001000100160003000100010001\n:00000001FF\n'
p12
sS'trials'
p13
(lp14
(dp15
Voverall
p16
(dp17
Voverflow
p18
I3
sVtime
p19
I17587
ssVcharge
p20
(dp21
Voverflow
p22
I0
sVcycles
p23
I126
ssVsections
p24
(lp25
(dp26
Voff
p27
(dp28
Voverflow
p29
I2
sVtime
p30
I-2406
ssVcharge
p31
(dp32
Voverflow
p33
I0
sVcycles
p34
I98
ssVoverall
p35
(dp36
Voverflow
p37
I2
sVtime
p38
I25268
ssa(dp39
Voff
p40
(dp41
Voverflow
p42
I1
sVtime
p43
I-16176
ssVcharge
p44
(dp45
Voverflow
p46
I0
sVcycles
p47
I25
ssVoverall
p48
(dp49
Voverflow
p50
I1
sVtime
p51
I-10273
ssasVoff
p52
(dp53
Voverflow
p54
I3
sVtime
p55
I-16639
ssa(dp56
Voverall
p57
(dp58
Voverflow
p59
I4
sVtime
p60
I-13663
ssVcharge
p61
(dp62
Voverflow
p63
I0
sVcycles
p64
I127
ssVsections
p65
(lp66
(dp67
Voff
p68
(dp69
Voverflow
p70
I2
sVtime
p71
I-781
ssVcharge
p72
(dp73
Voverflow
p74
I0
sVcycles
p75
I99
ssVoverall
p76
(dp77
Voverflow
p78
I3
sVtime
p79
I-5999
ssa(dp80
Voff
p81
(dp82
Voverflow
p83
I0
sVtime
p84
I16643
ssVcharge
p85
(dp86
Voverflow
p87
I0
sVcycles
p88
I25
ssVoverall
p89
(dp90
Voverflow
p91
I1
sVtime
p92
I-10263
ssasVoff
p93
(dp94
Voverflow
p95
I2
sVtime
p96
I17815
ssa(dp97
Voverall
p98
(dp99
Voverflow
p100
I3
sVtime
p101
I18668
ssVcharge
p102
(dp103
Voverflow
p104
I0
sVcycles
p105
I126
ssVsections
p106
(lp107
(dp108
Voff
p109
(dp110
Voverflow
p111
I2
sVtime
p112
I-1084
ssVcharge
p113
(dp114
Voverflow
p115
I0
sVcycles
p116
I98
ssVoverall
p117
(dp118
Voverflow
p119
I3
sVtime
p120
I-6454
ssa(dp121
Voff
p122
(dp123
Voverflow
p124
I1
sVtime
p125
I-16117
ssVcharge
p126
(dp127
Voverflow
p128
I0
sVcycles
p129
I25
ssVoverall
p130
(dp131
Voverflow
p132
I0
sVtime
p133
I22535
ssasVoff
p134
(dp135
Voverflow
p136
I3
sVtime
p137
I-15252
ssa(dp138
Voverall
p139
(dp140
Voverflow
p141
I4
sVtime
p142
I-13115
ssVcharge
p143
(dp144
Voverflow
p145
I0
sVcycles
p146
I127
ssVsections
p147
(lp148
(dp149
Voff
p150
(dp151
Voverflow
p152
I2
sVtime
p153
I171
ssVcharge
p154
(dp155
Voverflow
p156
I0
sVcycles
p157
I99
ssVoverall
p158
(dp159
Voverflow
p160
I3
sVtime
p161
I-5164
ssa(dp162
Voff
p163
(dp164
Voverflow
p165
I1
sVtime
p166
I-16438
ssVcharge
p167
(dp168
Voverflow
p169
I0
sVcycles
p170
I25
ssVoverall
p171
(dp172
Voverflow
p173
I1
sVtime
p174
I-10550
ssasVoff
p175
(dp176
Voverflow
p177
I3
sVtime
p178
I-14313
ssa(dp179
Voverall
p180
(dp181
Voverflow
p182
I4
sVtime
p183
I-15931
ssVcharge
p184
(dp185
Voverflow
p186
I0
sVcycles
p187
I125
ssVsections
p188
(lp189
(dp190
Voff
p191
(dp192
Voverflow
p193
I1
sVtime
p194
I29783
ssVcharge
p195
(dp196
Voverflow
p197
I0
sVcycles
p198
I97
ssVoverall
p199
(dp200
Voverflow
p201
I3
sVtime
p202
I-8351
ssa(dp203
Voff
p204
(dp205
Voverflow
p206
I0
sVtime
p207
I16716
ssVcharge
p208
(dp209
Voverflow
p210
I0
sVcycles
p211
I25
ssVoverall
p212
(dp213
Voverflow
p214
I1
sVtime
p215
I-10167
ssasVoff
p216
(dp217
Voverflow
p218
I2
sVtime
p219
I15674
ssa(dp220
Voverall
p221
(dp222
Voverflow
p223
I3
sVtime
p224
I18833
ssVcharge
p225
(dp226
Voverflow
p227
I0
sVcycles
p228
I127
ssVsections
p229
(lp230
(dp231
Voff
p232
(dp233
Voverflow
p234
I2
sVtime
p235
I-760
ssVcharge
p236
(dp237
Voverflow
p238
I0
sVcycles
p239
I99
ssVoverall
p240
(dp241
Voverflow
p242
I2
sVtime
p243
I26805
ssa(dp244
Voff
p245
(dp246
Voverflow
p247
I1
sVtime
p248
I-16447
ssVcharge
p249
(dp250
Voverflow
p251
I0
sVcycles
p252
I25
ssVoverall
p253
(dp254
Voverflow
p255
I1
sVtime
p256
I-10562
ssasVoff
p257
(dp258
Voverflow
p259
I3
sVtime
p260
I-15267
ssa(dp261
Voverall
p262
(dp263
Voverflow
p264
I4
sVtime
p265
I-9977
ssVcharge
p266
(dp267
Voverflow
p268
I1
sVcycles
p269
I-32640
ssVsections
p270
(lp271
(dp272
Voff
p273
(dp274
Voverflow
p275
I2
sVtime
p276
I1667
ssVcharge
p277
(dp278
Voverflow
p279
I1
sVcycles
p280
I-32668
ssVoverall
p281
(dp282
Voverflow
p283
I3
sVtime
p284
I-3614
ssa(dp285
Voff
p286
(dp287
Voverflow
p288
I0
sVtime
p289
I17942
ssVcharge
p290
(dp291
Voverflow
p292
I0
sVcycles
p293
I25
ssVoverall
p294
(dp295
Voverflow
p296
I1
sVtime
p297
I-9075
ssasVoff
p298
(dp299
Voverflow
p300
I2
sVtime
p301
I21688
ssa(dp302
Voverall
p303
(dp304
Voverflow
p305
I4
sVtime
p306
I-2992
ssVcharge
p307
(dp308
Voverflow
p309
I0
sVcycles
p310
I131
ssVsections
p311
(lp312
(dp313
Voff
p314
(dp315
Voverflow
p316
I3
sVtime
p317
I-28236
ssVcharge
p318
(dp319
Voverflow
p320
I0
sVcycles
p321
I101
ssVoverall
p322
(dp323
Voverflow
p324
I3
sVtime
p325
I-750
ssa(dp326
Voff
p327
(dp328
Voverflow
p329
I0
sVtime
p330
I21824
ssVcharge
p331
(dp332
Voverflow
p333
I0
sVcycles
p334
I27
ssVoverall
p335
(dp336
Voverflow
p337
I1
sVtime
p338
I-5176
ssasVoff
p339
(dp340
Voverflow
p341
I3
sVtime
p342
I-4082
ssa(dp343
Voverall
p344
(dp345
Voverflow
p346
I4
sVtime
p347
I8567
ssVcharge
p348
(dp349
Voverflow
p350
I0
sVcycles
p351
I137
ssVsections
p352
(lp353
(dp354
Voff
p355
(dp356
Voverflow
p357
I3
sVtime
p358
I-12040
ssVcharge
p359
(dp360
Voverflow
p361
I0
sVcycles
p362
I109
ssVoverall
p363
(dp364
Voverflow
p365
I3
sVtime
p366
I15491
ssa(dp367
Voff
p368
(dp369
Voverflow
p370
I0
sVtime
p371
I17256
ssVcharge
p372
(dp373
Voverflow
p374
I0
sVcycles
p375
I25
ssVoverall
p376
(dp377
Voverflow
p378
I1
sVtime
p379
I-9696
ssasVoff
p380
(dp381
Voverflow
p382
I4
sVtime
p383
I-25393
ssa(dp384
Voverall
p385
(dp386
Voverflow
p387
I4
sVtime
p388
I-11767
ssVcharge
p389
(dp390
Voverflow
p391
I0
sVcycles
p392
I128
ssVsections
p393
(lp394
(dp395
Voff
p396
(dp397
Voverflow
p398
I2
sVtime
p399
I1307
ssVcharge
p400
(dp401
Voverflow
p402
I0
sVcycles
p403
I100
ssVoverall
p404
(dp405
Voverflow
p406
I3
sVtime
p407
I-4048
ssa(dp408
Voff
p409
(dp410
Voverflow
p411
I0
sVtime
p412
I16572
ssVcharge
p413
(dp414
Voverflow
p415
I0
sVcycles
p416
I25
ssVoverall
p417
(dp418
Voverflow
p419
I1
sVtime
p420
I-10345
ssasVoff
p421
(dp422
Voverflow
p423
I2
sVtime
p424
I19866
ssa(dp425
Voverall
p426
(dp427
Voverflow
p428
I3
sVtime
p429
I15579
ssVcharge
p430
(dp431
Voverflow
p432
I0
sVcycles
p433
I124
ssVsections
p434
(lp435
(dp436
Voff
p437
(dp438
Voverflow
p439
I2
sVtime
p440
I-2974
ssVcharge
p441
(dp442
Voverflow
p443
I0
sVcycles
p444
I97
ssVoverall
p445
(dp446
Voverflow
p447
I3
sVtime
p448
I-8391
ssa(dp449
Voff
p450
(dp451
Voverflow
p452
I1
sVtime
p453
I-17124
ssVcharge
p454
(dp455
Voverflow
p456
I0
sVcycles
p457
I24
ssVoverall
p458
(dp459
Voverflow
p460
I0
sVtime
p461
I21371
ssasVoff
p462
(dp463
Voverflow
p464
I3
sVtime
p465
I-18142
ssasVeid
p466
I43
sVtile_size
p467
I256
sVbackend
p468
Vlea_fir
p469
s.