(dp0
Vlea
p1
I01
sVcommands
p2
(lp3
Vrm bld/gcc/*.{out,o,d}
p4
aVfind ext/libdnn -name '*.a' -or -name '*.o' | xargs rm
p5
aVfind ext/libdsp -name '*.a' -or -name '*.o' | xargs rm
p6
aVmake -j4 bld/gcc/all TARGET=mnist BACKEND=lea TRIALS=11 MAT_BUF_SIZE=0x310 LAYER_BUF_SIZE=0x3000 TILE_SIZE=256
p7
asVtarget
p8
Vmnist
p9
sVdma
p10
I2
sS'mem'
p11
S':020000040003F7\n:10A00000FFFFFFFFFFFFFFFFFFFFFFFFFFFFFFFF60\n:10A01000FFFFFFFFFFFFFFFFFFFFFFFFFFFFFFFF50\n:10A02000FFFFFFFFFFFFFFFFFFFFFFFFFFFFFFFF40\n:10A03000FFFFFFFFFFFFFFFFFFFFFFFFFFFFFFFF30\n:00000001FF\n'
p12
sS'trials'
p13
(lp14
(dp15
Voverall
p16
(dp17
Voverflow
p18
I2
sVtime
p19
I29247
ssVcharge
p20
(dp21
Voverflow
p22
I0
sVcycles
p23
I105
ssVsections
p24
(lp25
(dp26
Voff
p27
(dp28
Voverflow
p29
I0
sVtime
p30
I23122
ssVcharge
p31
(dp32
Voverflow
p33
I0
sVcycles
p34
I36
ssVoverall
p35
(dp36
Voverflow
p37
I1
sVtime
p38
I-803
ssa(dp39
Voff
p40
(dp41
Voverflow
p42
I1
sVtime
p43
I3247
ssVcharge
p44
(dp45
Voverflow
p46
I0
sVcycles
p47
I56
ssVoverall
p48
(dp49
Voverflow
p50
I1
sVtime
p51
I18514
ssa(dp52
Voff
p53
(dp54
Voverflow
p55
I1
sVtime
p56
I-30066
ssVcharge
p57
(dp58
Voverflow
p59
I0
sVcycles
p60
I4
ssVoverall
p61
(dp62
Voverflow
p63
I0
sVtime
p64
I3629
ssasVoff
p65
(dp66
Voverflow
p67
I2
sVtime
p68
I2204
ssa(dp69
Voverall
p70
(dp71
Voverflow
p72
I3
sVtime
p73
I-28
ssVcharge
p74
(dp75
Voverflow
p76
I0
sVcycles
p77
I107
ssVsections
p78
(lp79
(dp80
Voff
p81
(dp82
Voverflow
p83
I0
sVtime
p84
I24745
ssVcharge
p85
(dp86
Voverflow
p87
I0
sVcycles
p88
I37
ssVoverall
p89
(dp90
Voverflow
p91
I1
sVtime
p92
I748
ssa(dp93
Voff
p94
(dp95
Voverflow
p96
I1
sVtime
p97
I5222
ssVcharge
p98
(dp99
Voverflow
p100
I0
sVcycles
p101
I57
ssVoverall
p102
(dp103
Voverflow
p104
I1
sVtime
p105
I20411
ssa(dp106
Voff
p107
(dp108
Voverflow
p109
I0
sVtime
p110
I2667
ssVcharge
p111
(dp112
Voverflow
p113
I0
sVcycles
p114
I4
ssVoverall
p115
(dp116
Voverflow
p117
I1
sVtime
p118
I-29163
ssasVoff
p119
(dp120
Voverflow
p121
I2
sVtime
p122
I5853
ssa(dp123
Voverall
p124
(dp125
Voverflow
p126
I3
sVtime
p127
I-869
ssVcharge
p128
(dp129
Voverflow
p130
I0
sVcycles
p131
I106
ssVsections
p132
(lp133
(dp134
Voff
p135
(dp136
Voverflow
p137
I1
sVtime
p138
I-8626
ssVcharge
p139
(dp140
Voverflow
p141
I0
sVcycles
p142
I36
ssVoverall
p143
(dp144
Voverflow
p145
I1
sVtime
p146
I-11
ssa(dp147
Voff
p148
(dp149
Voverflow
p150
I1
sVtime
p151
I5120
ssVcharge
p152
(dp153
Voverflow
p154
I0
sVcycles
p155
I57
ssVoverall
p156
(dp157
Voverflow
p158
I1
sVtime
p159
I20359
ssa(dp160
Voff
p161
(dp162
Voverflow
p163
I0
sVtime
p164
I2640
ssVcharge
p165
(dp166
Voverflow
p167
I0
sVcycles
p168
I4
ssVoverall
p169
(dp170
Voverflow
p171
I1
sVtime
p172
I-29187
ssasVoff
p173
(dp174
Voverflow
p175
I2
sVtime
p176
I5119
ssa(dp177
Voverall
p178
(dp179
Voverflow
p180
I3
sVtime
p181
I-1856
ssVcharge
p182
(dp183
Voverflow
p184
I0
sVcycles
p185
I106
ssVsections
p186
(lp187
(dp188
Voff
p189
(dp190
Voverflow
p191
I1
sVtime
p192
I-7964
ssVcharge
p193
(dp194
Voverflow
p195
I0
sVcycles
p196
I37
ssVoverall
p197
(dp198
Voverflow
p199
I1
sVtime
p200
I830
ssa(dp201
Voff
p202
(dp203
Voverflow
p204
I1
sVtime
p205
I3501
ssVcharge
p206
(dp207
Voverflow
p208
I0
sVcycles
p209
I56
ssVoverall
p210
(dp211
Voverflow
p212
I1
sVtime
p213
I18666
ssa(dp214
Voff
p215
(dp216
Voverflow
p217
I0
sVtime
p218
I2578
ssVcharge
p219
(dp220
Voverflow
p221
I0
sVcycles
p222
I4
ssVoverall
p223
(dp224
Voverflow
p225
I1
sVtime
p226
I-29242
ssasVoff
p227
(dp228
Voverflow
p229
I2
sVtime
p230
I4005
ssa(dp231
Voverall
p232
(dp233
Voverflow
p234
I2
sVtime
p235
I28178
ssVcharge
p236
(dp237
Voverflow
p238
I0
sVcycles
p239
I104
ssVsections
p240
(lp241
(dp242
Voff
p243
(dp244
Voverflow
p245
I1
sVtime
p246
I-9478
ssVcharge
p247
(dp248
Voverflow
p249
I0
sVcycles
p250
I36
ssVoverall
p251
(dp252
Voverflow
p253
I1
sVtime
p254
I-716
ssa(dp255
Voff
p256
(dp257
Voverflow
p258
I1
sVtime
p259
I2310
ssVcharge
p260
(dp261
Voverflow
p262
I0
sVcycles
p263
I55
ssVoverall
p264
(dp265
Voverflow
p266
I1
sVtime
p267
I17416
ssa(dp268
Voff
p269
(dp270
Voverflow
p271
I0
sVtime
p272
I2646
ssVcharge
p273
(dp274
Voverflow
p275
I0
sVcycles
p276
I4
ssVoverall
p277
(dp278
Voverflow
p279
I0
sVtime
p280
I3585
ssasVoff
p281
(dp282
Voverflow
p283
I2
sVtime
p284
I1366
ssa(dp285
Voverall
p286
(dp287
Voverflow
p288
I2
sVtime
p289
I29421
ssVcharge
p290
(dp291
Voverflow
p292
I0
sVcycles
p293
I105
ssVsections
p294
(lp295
(dp296
Voff
p297
(dp298
Voverflow
p299
I1
sVtime
p300
I-8951
ssVcharge
p301
(dp302
Voverflow
p303
I0
sVcycles
p304
I36
ssVoverall
p305
(dp306
Voverflow
p307
I1
sVtime
p308
I-325
ssa(dp309
Voff
p310
(dp311
Voverflow
p312
I1
sVtime
p313
I3076
ssVcharge
p314
(dp315
Voverflow
p316
I0
sVcycles
p317
I56
ssVoverall
p318
(dp319
Voverflow
p320
I1
sVtime
p321
I18344
ssa(dp322
Voff
p323
(dp324
Voverflow
p325
I0
sVtime
p326
I2566
ssVcharge
p327
(dp328
Voverflow
p329
I0
sVcycles
p330
I4
ssVoverall
p331
(dp332
Voverflow
p333
I0
sVtime
p334
I3523
ssasVoff
p335
(dp336
Voverflow
p337
I2
sVtime
p338
I2559
ssa(dp339
Voverall
p340
(dp341
Voverflow
p342
I3
sVtime
p343
I-8042
ssVcharge
p344
(dp345
Voverflow
p346
I0
sVcycles
p347
I102
ssVsections
p348
(lp349
(dp350
Voff
p351
(dp352
Voverflow
p353
I1
sVtime
p354
I-10738
ssVcharge
p355
(dp356
Voverflow
p357
I0
sVcycles
p358
I35
ssVoverall
p359
(dp360
Voverflow
p361
I1
sVtime
p362
I-2088
ssa(dp363
Voff
p364
(dp365
Voverflow
p366
I1
sVtime
p367
I1450
ssVcharge
p368
(dp369
Voverflow
p370
I0
sVcycles
p371
I55
ssVoverall
p372
(dp373
Voverflow
p374
I1
sVtime
p375
I16699
ssa(dp376
Voff
p377
(dp378
Voverflow
p379
I0
sVtime
p380
I2402
ssVcharge
p381
(dp382
Voverflow
p383
I0
sVcycles
p384
I4
ssVoverall
p385
(dp386
Voverflow
p387
I0
sVtime
p388
I3378
ssasVoff
p389
(dp390
Voverflow
p391
I2
sVtime
p392
I-2008
ssa(dp393
Voverall
p394
(dp395
Voverflow
p396
I3
sVtime
p397
I-2048
ssVcharge
p398
(dp399
Voverflow
p400
I0
sVcycles
p401
I106
ssVsections
p402
(lp403
(dp404
Voff
p405
(dp406
Voverflow
p407
I1
sVtime
p408
I-9454
ssVcharge
p409
(dp410
Voverflow
p411
I0
sVcycles
p412
I36
ssVoverall
p413
(dp414
Voverflow
p415
I1
sVtime
p416
I-717
ssa(dp417
Voff
p418
(dp419
Voverflow
p420
I1
sVtime
p421
I4799
ssVcharge
p422
(dp423
Voverflow
p424
I0
sVcycles
p425
I57
ssVoverall
p426
(dp427
Voverflow
p428
I2
sVtime
p429
I-12738
ssa(dp430
Voff
p431
(dp432
Voverflow
p433
I0
sVtime
p434
I2575
ssVcharge
p435
(dp436
Voverflow
p437
I0
sVcycles
p438
I4
ssVoverall
p439
(dp440
Voverflow
p441
I0
sVtime
p442
I3522
ssasVoff
p443
(dp444
Voverflow
p445
I2
sVtime
p446
I3803
ssa(dp447
Voverall
p448
(dp449
Voverflow
p450
I3
sVtime
p451
I-5194
ssVcharge
p452
(dp453
Voverflow
p454
I0
sVcycles
p455
I104
ssVsections
p456
(lp457
(dp458
Voff
p459
(dp460
Voverflow
p461
I0
sVtime
p462
I22933
ssVcharge
p463
(dp464
Voverflow
p465
I0
sVcycles
p466
I36
ssVoverall
p467
(dp468
Voverflow
p469
I1
sVtime
p470
I-1045
ssa(dp471
Voff
p472
(dp473
Voverflow
p474
I1
sVtime
p475
I2235
ssVcharge
p476
(dp477
Voverflow
p478
I0
sVcycles
p479
I55
ssVoverall
p480
(dp481
Voverflow
p482
I2
sVtime
p483
I-15388
ssa(dp484
Voff
p485
(dp486
Voverflow
p487
I1
sVtime
p488
I-30235
ssVcharge
p489
(dp490
Voverflow
p491
I0
sVcycles
p492
I4
ssVoverall
p493
(dp494
Voverflow
p495
I0
sVtime
p496
I3481
ssasVoff
p497
(dp498
Voverflow
p499
I2
sVtime
p500
I667
ssa(dp501
Voverall
p502
(dp503
Voverflow
p504
I3
sVtime
p505
I-6501
ssVcharge
p506
(dp507
Voverflow
p508
I0
sVcycles
p509
I103
ssVsections
p510
(lp511
(dp512
Voff
p513
(dp514
Voverflow
p515
I0
sVtime
p516
I22861
ssVcharge
p517
(dp518
Voverflow
p519
I0
sVcycles
p520
I36
ssVoverall
p521
(dp522
Voverflow
p523
I1
sVtime
p524
I-1128
ssa(dp525
Voff
p526
(dp527
Voverflow
p528
I1
sVtime
p529
I1867
ssVcharge
p530
(dp531
Voverflow
p532
I0
sVcycles
p533
I55
ssVoverall
p534
(dp535
Voverflow
p536
I2
sVtime
p537
I-15732
ssa(dp538
Voff
p539
(dp540
Voverflow
p541
I1
sVtime
p542
I-30242
ssVcharge
p543
(dp544
Voverflow
p545
I0
sVcycles
p546
I4
ssVoverall
p547
(dp548
Voverflow
p549
I0
sVtime
p550
I3485
ssasVoff
p551
(dp552
Voverflow
p553
I2
sVtime
p554
I-478
ssa(dp555
Voverall
p556
(dp557
Voverflow
p558
I3
sVtime
p559
I-4631
ssVcharge
p560
(dp561
Voverflow
p562
I0
sVcycles
p563
I104
ssVsections
p564
(lp565
(dp566
Voff
p567
(dp568
Voverflow
p569
I0
sVtime
p570
I23641
ssVcharge
p571
(dp572
Voverflow
p573
I0
sVcycles
p574
I36
ssVoverall
p575
(dp576
Voverflow
p577
I1
sVtime
p578
I-444
ssa(dp579
Voff
p580
(dp581
Voverflow
p582
I2
sVtime
p583
I-30669
ssVcharge
p584
(dp585
Voverflow
p586
I0
sVcycles
p587
I55
ssVoverall
p588
(dp589
Voverflow
p590
I2
sVtime
p591
I-15505
ssa(dp592
Voff
p593
(dp594
Voverflow
p595
I0
sVtime
p596
I2566
ssVcharge
p597
(dp598
Voverflow
p599
I0
sVcycles
p600
I4
ssVoverall
p601
(dp602
Voverflow
p603
I0
sVtime
p604
I3522
ssasVoff
p605
(dp606
Voverflow
p607
I2
sVtime
p608
I1327
ssasVeid
p609
I5
sVtile_size
p610
I256
sVbackend
p611
Vlea_fir
p612
s.