(dp0
Vlea
p1
I00
sVcommands
p2
(lp3
Vrm bld/gcc/*.{out,o,d}
p4
aVfind ext/libdnn -name '*.a' -or -name '*.o' | xargs rm
p5
aVmake -j4 bld/gcc/all TARGET=mnist BACKEND=tile TRIALS=11 MAT_BUF_SIZE=0x310 LAYER_BUF_SIZE=0x3000 TILE_SIZE=128
p6
asVtarget
p7
Vmnist
p8
sVdma
p9
I0
sS'mem'
p10
S':020000040003F7\n:10A00000FFFFFFFFFFFFFFFFFFFFFFFFFFFFFFFF60\n:10A01000FFFFFFFFFFFFFFFFFFFFFFFFFFFFFFFF50\n:10A02000FFFFFFFFFFFFFFFFFFFFFFFFFFFFFFFF40\n:10A03000FFFFFFFFFFFFFFFFFFFFFFFFFFFFFFFF30\n:00000001FF\n'
p11
sS'trials'
p12
(lp13
(dp14
Voverall
p15
(dp16
Voverflow
p17
I18
sVtime
p18
I-9656
ssVcharge
p19
(dp20
Voverflow
p21
I0
sVcycles
p22
I629
ssVsections
p23
(lp24
(dp25
Voff
p26
(dp27
Voverflow
p28
I6
sVtime
p29
I10218
ssVcharge
p30
(dp31
Voverflow
p32
I0
sVcycles
p33
I306
ssVoverall
p34
(dp35
Voverflow
p36
I8
sVtime
p37
I18238
ssa(dp38
Voff
p39
(dp40
Voverflow
p41
I1
sVtime
p42
I10187
ssVcharge
p43
(dp44
Voverflow
p45
I0
sVcycles
p46
I62
ssVoverall
p47
(dp48
Voverflow
p49
I2
sVtime
p50
I-8289
ssa(dp51
Voff
p52
(dp53
Voverflow
p54
I5
sVtime
p55
I-9588
ssVcharge
p56
(dp57
Voverflow
p58
I0
sVcycles
p59
I218
ssVoverall
p60
(dp61
Voverflow
p62
I7
sVtime
p63
I-26406
ssasVoff
p64
(dp65
Voverflow
p66
I13
sVtime
p67
I7897
ssa(dp68
Voverall
p69
(dp70
Voverflow
p71
I18
sVtime
p72
I22281
ssVcharge
p73
(dp74
Voverflow
p75
I0
sVcycles
p76
I656
ssVsections
p77
(lp78
(dp79
Voff
p80
(dp81
Voverflow
p82
I7
sVtime
p83
I1111
ssVcharge
p84
(dp85
Voverflow
p86
I0
sVcycles
p87
I331
ssVoverall
p88
(dp89
Voverflow
p90
I9
sVtime
p91
I13790
ssa(dp92
Voff
p93
(dp94
Voverflow
p95
I1
sVtime
p96
I10050
ssVcharge
p97
(dp98
Voverflow
p99
I0
sVcycles
p100
I62
ssVoverall
p101
(dp102
Voverflow
p103
I2
sVtime
p104
I-8422
ssa(dp105
Voff
p106
(dp107
Voverflow
p108
I5
sVtime
p109
I-6578
ssVcharge
p110
(dp111
Voverflow
p112
I0
sVcycles
p113
I220
ssVoverall
p114
(dp115
Voverflow
p116
I6
sVtime
p117
I9676
ssasVoff
p118
(dp119
Voverflow
p120
I14
sVtime
p121
I2140
ssa(dp122
Voverall
p123
(dp124
Voverflow
p125
I19
sVtime
p126
I-17021
ssVcharge
p127
(dp128
Voverflow
p129
I0
sVcycles
p130
I648
ssVsections
p131
(lp132
(dp133
Voff
p134
(dp135
Voverflow
p136
I7
sVtime
p137
I-4210
ssVcharge
p138
(dp139
Voverflow
p140
I0
sVcycles
p141
I322
ssVoverall
p142
(dp143
Voverflow
p144
I10
sVtime
p145
I-26797
ssa(dp146
Voff
p147
(dp148
Voverflow
p149
I1
sVtime
p150
I13309
ssVcharge
p151
(dp152
Voverflow
p153
I0
sVcycles
p154
I65
ssVoverall
p155
(dp156
Voverflow
p157
I2
sVtime
p158
I-4649
ssa(dp159
Voff
p160
(dp161
Voverflow
p162
I5
sVtime
p163
I-8408
ssVcharge
p164
(dp165
Voverflow
p166
I0
sVcycles
p167
I218
ssVoverall
p168
(dp169
Voverflow
p170
I6
sVtime
p171
I7286
ssasVoff
p172
(dp173
Voverflow
p174
I14
sVtime
p175
I-1809
ssa(dp176
Voverall
p177
(dp178
Voverflow
p179
I18
sVtime
p180
I-3070
ssVcharge
p181
(dp182
Voverflow
p183
I0
sVcycles
p184
I636
ssVsections
p185
(lp186
(dp187
Voff
p188
(dp189
Voverflow
p190
I7
sVtime
p191
I-11787
ssVcharge
p192
(dp193
Voverflow
p194
I0
sVcycles
p195
I316
ssVoverall
p196
(dp197
Voverflow
p198
I9
sVtime
p199
I-2315
ssa(dp200
Voff
p201
(dp202
Voverflow
p203
I2
sVtime
p204
I-23874
ssVcharge
p205
(dp206
Voverflow
p207
I0
sVcycles
p208
I61
ssVoverall
p209
(dp210
Voverflow
p211
I1
sVtime
p212
I23096
ssa(dp213
Voff
p214
(dp215
Voverflow
p216
I4
sVtime
p217
I19417
ssVcharge
p218
(dp219
Voverflow
p220
I0
sVcycles
p221
I216
ssVoverall
p222
(dp223
Voverflow
p224
I6
sVtime
p225
I2434
ssasVoff
p226
(dp227
Voverflow
p228
I13
sVtime
p229
I13224
ssa(dp230
Voverall
p231
(dp232
Voverflow
p233
I18
sVtime
p234
I12923
ssVcharge
p235
(dp236
Voverflow
p237
I0
sVcycles
p238
I644
ssVsections
p239
(lp240
(dp241
Voff
p242
(dp243
Voverflow
p244
I7
sVtime
p245
I-2482
ssVcharge
p246
(dp247
Voverflow
p248
I0
sVcycles
p249
I322
ssVoverall
p250
(dp251
Voverflow
p252
I9
sVtime
p253
I7588
ssa(dp254
Voff
p255
(dp256
Voverflow
p257
I1
sVtime
p258
I11498
ssVcharge
p259
(dp260
Voverflow
p261
I0
sVcycles
p262
I63
ssVoverall
p263
(dp264
Voverflow
p265
I2
sVtime
p266
I-6833
ssa(dp267
Voff
p268
(dp269
Voverflow
p270
I4
sVtime
p271
I22417
ssVcharge
p272
(dp273
Voverflow
p274
I0
sVcycles
p275
I216
ssVoverall
p276
(dp277
Voverflow
p278
I6
sVtime
p279
I5183
ssasVoff
p280
(dp281
Voverflow
p282
I14
sVtime
p283
I-4054
ssa(dp284
Voverall
p285
(dp286
Voverflow
p287
I19
sVtime
p288
I-25305
ssVcharge
p289
(dp290
Voverflow
p291
I0
sVcycles
p292
I640
ssVsections
p293
(lp294
(dp295
Voff
p296
(dp297
Voverflow
p298
I7
sVtime
p299
I-2088
ssVcharge
p300
(dp301
Voverflow
p302
I0
sVcycles
p303
I319
ssVoverall
p304
(dp305
Voverflow
p306
I10
sVtime
p307
I-25674
ssa(dp308
Voff
p309
(dp310
Voverflow
p311
I1
sVtime
p312
I11483
ssVcharge
p313
(dp314
Voverflow
p315
I0
sVcycles
p316
I63
ssVoverall
p317
(dp318
Voverflow
p319
I2
sVtime
p320
I-6828
ssa(dp321
Voff
p322
(dp323
Voverflow
p324
I4
sVtime
p325
I17055
ssVcharge
p326
(dp327
Voverflow
p328
I0
sVcycles
p329
I215
ssVoverall
p330
(dp331
Voverflow
p332
I7
sVtime
p333
I-32539
ssasVoff
p334
(dp335
Voverflow
p336
I14
sVtime
p337
I-9072
ssa(dp338
Voverall
p339
(dp340
Voverflow
p341
I17
sVtime
p342
I15805
ssVcharge
p343
(dp344
Voverflow
p345
I0
sVcycles
p346
I624
ssVsections
p347
(lp348
(dp349
Voff
p350
(dp351
Voverflow
p352
I6
sVtime
p353
I11028
ssVcharge
p354
(dp355
Voverflow
p356
I0
sVcycles
p357
I305
ssVoverall
p358
(dp359
Voverflow
p360
I8
sVtime
p361
I18536
ssa(dp362
Voff
p363
(dp364
Voverflow
p365
I1
sVtime
p366
I9154
ssVcharge
p367
(dp368
Voverflow
p369
I0
sVcycles
p370
I61
ssVoverall
p371
(dp372
Voverflow
p373
I2
sVtime
p374
I-9452
ssa(dp375
Voff
p376
(dp377
Voverflow
p378
I4
sVtime
p379
I16938
ssVcharge
p380
(dp381
Voverflow
p382
I0
sVcycles
p383
I215
ssVoverall
p384
(dp385
Voverflow
p386
I6
sVtime
p387
I138
ssasVoff
p388
(dp389
Voverflow
p390
I13
sVtime
p391
I1149
ssa(dp392
Voverall
p393
(dp394
Voverflow
p395
I18
sVtime
p396
I-19700
ssVcharge
p397
(dp398
Voverflow
p399
I0
sVcycles
p400
I621
ssVsections
p401
(lp402
(dp403
Voff
p404
(dp405
Voverflow
p406
I6
sVtime
p407
I5151
ssVcharge
p408
(dp409
Voverflow
p410
I0
sVcycles
p411
I300
ssVoverall
p412
(dp413
Voverflow
p414
I9
sVtime
p415
I-20868
ssa(dp416
Voff
p417
(dp418
Voverflow
p419
I1
sVtime
p420
I10453
ssVcharge
p421
(dp422
Voverflow
p423
I0
sVcycles
p424
I62
ssVoverall
p425
(dp426
Voverflow
p427
I2
sVtime
p428
I-8073
ssa(dp429
Voff
p430
(dp431
Voverflow
p432
I4
sVtime
p433
I19429
ssVcharge
p434
(dp435
Voverflow
p436
I0
sVcycles
p437
I216
ssVoverall
p438
(dp439
Voverflow
p440
I6
sVtime
p441
I2483
ssasVoff
p442
(dp443
Voverflow
p444
I13
sVtime
p445
I-754
ssa(dp446
Voverall
p447
(dp448
Voverflow
p449
I19
sVtime
p450
I20363
ssVcharge
p451
(dp452
Voverflow
p453
I0
sVcycles
p454
I660
ssVsections
p455
(lp456
(dp457
Voff
p458
(dp459
Voverflow
p460
I7
sVtime
p461
I-5982
ssVcharge
p462
(dp463
Voverflow
p464
I0
sVcycles
p465
I319
ssVoverall
p466
(dp467
Voverflow
p468
I9
sVtime
p469
I3782
ssa(dp470
Voff
p471
(dp472
Voverflow
p473
I1
sVtime
p474
I15818
ssVcharge
p475
(dp476
Voverflow
p477
I0
sVcycles
p478
I65
ssVoverall
p479
(dp480
Voverflow
p481
I2
sVtime
p482
I-2354
ssa(dp483
Voff
p484
(dp485
Voverflow
p486
I6
sVtime
p487
I-4030
ssVcharge
p488
(dp489
Voverflow
p490
I0
sVcycles
p491
I233
ssVoverall
p492
(dp493
Voverflow
p494
I7
sVtime
p495
I12014
ssasVoff
p496
(dp497
Voverflow
p498
I15
sVtime
p499
I3008
ssa(dp500
Voverall
p501
(dp502
Voverflow
p503
I20
sVtime
p504
I-24424
ssVcharge
p505
(dp506
Voverflow
p507
I0
sVcycles
p508
I677
ssVsections
p509
(lp510
(dp511
Voff
p512
(dp513
Voverflow
p514
I8
sVtime
p515
I-12517
ssVcharge
p516
(dp517
Voverflow
p518
I0
sVcycles
p519
I357
ssVoverall
p520
(dp521
Voverflow
p522
I10
sVtime
p523
I6856
ssa(dp524
Voff
p525
(dp526
Voverflow
p527
I1
sVtime
p528
I8604
ssVcharge
p529
(dp530
Voverflow
p531
I0
sVcycles
p532
I60
ssVoverall
p533
(dp534
Voverflow
p535
I2
sVtime
p536
I-10220
ssa(dp537
Voff
p538
(dp539
Voverflow
p540
I5
sVtime
p541
I-9573
ssVcharge
p542
(dp543
Voverflow
p544
I0
sVcycles
p545
I217
ssVoverall
p546
(dp547
Voverflow
p548
I6
sVtime
p549
I5918
ssasVoff
p550
(dp551
Voverflow
p552
I15
sVtime
p553
I-17591
ssa(dp554
Voverall
p555
(dp556
Voverflow
p557
I18
sVtime
p558
I12953
ssVcharge
p559
(dp560
Voverflow
p561
I0
sVcycles
p562
I645
ssVsections
p563
(lp564
(dp565
Voff
p566
(dp567
Voverflow
p568
I7
sVtime
p569
I-1492
ssVcharge
p570
(dp571
Voverflow
p572
I0
sVcycles
p573
I322
ssVoverall
p574
(dp575
Voverflow
p576
I9
sVtime
p577
I8372
ssa(dp578
Voff
p579
(dp580
Voverflow
p581
I1
sVtime
p582
I9924
ssVcharge
p583
(dp584
Voverflow
p585
I0
sVcycles
p586
I62
ssVoverall
p587
(dp588
Voverflow
p589
I2
sVtime
p590
I-8494
ssa(dp591
Voff
p592
(dp593
Voverflow
p594
I5
sVtime
p595
I-12550
ssVcharge
p596
(dp597
Voverflow
p598
I0
sVcycles
p599
I217
ssVoverall
p600
(dp601
Voverflow
p602
I6
sVtime
p603
I3546
ssasVoff
p604
(dp605
Voverflow
p606
I14
sVtime
p607
I-4248
ssasVeid
p608
I51
sVtile_size
p609
I128
sVbackend
p610
Vtile
p611
s.