(dp0
Vlea
p1
I00
sVcommands
p2
(lp3
Vrm bld/gcc/*.{out,o,d}
p4
aVfind ext/libdnn -name '*.a' -or -name '*.o' | xargs rm
p5
aVmake -j4 bld/gcc/all TARGET=okg BACKEND=tile TRIALS=11 MAT_BUF_SIZE=0x240 LAYER_BUF_SIZE=0x2000 TILE_SIZE=128
p6
asVtarget
p7
Vokg
p8
sVdma
p9
I0
sS'mem'
p10
S':020000040003F7\n:10A00000CCFFCDFF3500D2FF3500DCFFD5FFD4FFFC\n:10A01000E9FF3700D7FF2C002600D5FFCAFF1A0042\n:10A0200030002700D6FF3400E5FF32002A00D5FFBC\n:10A03000DDFFE2FFCBFF2500D3FF30002600E5FF68\n:00000001FF\n'
p11
sS'trials'
p12
(lp13
(dp14
Voverall
p15
(dp16
Voverflow
p17
I26
sVtime
p18
I-19256
ssVcharge
p19
(dp20
Voverflow
p21
I0
sVcycles
p22
I883
ssVsections
p23
(lp24
(dp25
Voff
p26
(dp27
Voverflow
p28
I14
sVtime
p29
I18405
ssVcharge
p30
(dp31
Voverflow
p32
I0
sVcycles
p33
I677
ssVoverall
p34
(dp35
Voverflow
p36
I20
sVtime
p37
I-19052
ssa(dp38
Voff
p39
(dp40
Voverflow
p41
I5
sVtime
p42
I-16439
ssVcharge
p43
(dp44
Voverflow
p45
I0
sVcycles
p46
I202
ssVoverall
p47
(dp48
Voverflow
p49
I6
sVtime
p50
I-3841
ssasVoff
p51
(dp52
Voverflow
p53
I20
sVtime
p54
I-28060
ssa(dp55
Voverall
p56
(dp57
Voverflow
p58
I25
sVtime
p59
I9432
ssVcharge
p60
(dp61
Voverflow
p62
I0
sVcycles
p63
I884
ssVsections
p64
(lp65
(dp66
Voff
p67
(dp68
Voverflow
p69
I14
sVtime
p70
I26308
ssVcharge
p71
(dp72
Voverflow
p73
I0
sVcycles
p74
I685
ssVoverall
p75
(dp76
Voverflow
p77
I19
sVtime
p78
I22938
ssa(dp79
Voff
p80
(dp81
Voverflow
p82
I4
sVtime
p83
I3241
ssVcharge
p84
(dp85
Voverflow
p86
I0
sVcycles
p87
I195
ssVoverall
p88
(dp89
Voverflow
p90
I6
sVtime
p91
I-17141
ssasVoff
p92
(dp93
Voverflow
p94
I19
sVtime
p95
I-478
ssa(dp96
Voverall
p97
(dp98
Voverflow
p99
I24
sVtime
p100
I6798
ssVcharge
p101
(dp102
Voverflow
p103
I0
sVcycles
p104
I859
ssVsections
p105
(lp106
(dp107
Voff
p108
(dp109
Voverflow
p110
I14
sVtime
p111
I-3688
ssVcharge
p112
(dp113
Voverflow
p114
I0
sVcycles
p115
I661
ssVoverall
p116
(dp117
Voverflow
p118
I19
sVtime
p119
I-10254
ssa(dp120
Voff
p121
(dp122
Voverflow
p123
I4
sVtime
p124
I1165
ssVcharge
p125
(dp126
Voverflow
p127
I0
sVcycles
p128
I194
ssVoverall
p129
(dp130
Voverflow
p131
I5
sVtime
p132
I13465
ssasVoff
p133
(dp134
Voverflow
p135
I18
sVtime
p136
I154
ssa(dp137
Voverall
p138
(dp139
Voverflow
p140
I25
sVtime
p141
I-9012
ssVcharge
p142
(dp143
Voverflow
p144
I0
sVcycles
p145
I872
ssVsections
p146
(lp147
(dp148
Voff
p149
(dp150
Voverflow
p151
I15
sVtime
p152
I9229
ssVcharge
p153
(dp154
Voverflow
p155
I0
sVcycles
p156
I673
ssVoverall
p157
(dp158
Voverflow
p159
I19
sVtime
p160
I4505
ssa(dp161
Voff
p162
(dp163
Voverflow
p164
I4
sVtime
p165
I3203
ssVcharge
p166
(dp167
Voverflow
p168
I0
sVcycles
p169
I195
ssVoverall
p170
(dp171
Voverflow
p172
I6
sVtime
p173
I-17148
ssasVoff
p174
(dp175
Voverflow
p176
I19
sVtime
p177
I15167
ssa(dp178
Voverall
p179
(dp180
Voverflow
p181
I25
sVtime
p182
I-10923
ssVcharge
p183
(dp184
Voverflow
p185
I0
sVcycles
p186
I870
ssVsections
p187
(lp188
(dp189
Voff
p190
(dp191
Voverflow
p192
I14
sVtime
p193
I3585
ssVcharge
p194
(dp195
Voverflow
p196
I0
sVcycles
p197
I668
ssVoverall
p198
(dp199
Voverflow
p200
I19
sVtime
p201
I-1901
ssa(dp202
Voff
p203
(dp204
Voverflow
p205
I5
sVtime
p206
I-25276
ssVcharge
p207
(dp208
Voverflow
p209
I0
sVcycles
p210
I198
ssVoverall
p211
(dp212
Voverflow
p213
I6
sVtime
p214
I-12665
ssasVoff
p215
(dp216
Voverflow
p217
I19
sVtime
p218
I-18941
ssa(dp219
Voverall
p220
(dp221
Voverflow
p222
I26
sVtime
p223
I-2156
ssVcharge
p224
(dp225
Voverflow
p226
I0
sVcycles
p227
I894
ssVsections
p228
(lp229
(dp230
Voff
p231
(dp232
Voverflow
p233
I15
sVtime
p234
I5463
ssVcharge
p235
(dp236
Voverflow
p237
I0
sVcycles
p238
I691
ssVoverall
p239
(dp240
Voverflow
p241
I20
sVtime
p242
I2669
ssa(dp243
Voff
p244
(dp245
Voverflow
p246
I4
sVtime
p247
I11918
ssVcharge
p248
(dp249
Voverflow
p250
I0
sVcycles
p251
I199
ssVoverall
p252
(dp253
Voverflow
p254
I6
sVtime
p255
I-8504
ssasVoff
p256
(dp257
Voverflow
p258
I19
sVtime
p259
I20172
ssa(dp260
Voverall
p261
(dp262
Voverflow
p263
I26
sVtime
p264
I8746
ssVcharge
p265
(dp266
Voverflow
p267
I1
sVcycles
p268
I-31873
ssVsections
p269
(lp270
(dp271
Voff
p272
(dp273
Voverflow
p274
I15
sVtime
p275
I2531
ssVcharge
p276
(dp277
Voverflow
p278
I1
sVcycles
p279
I-32082
ssVoverall
p280
(dp281
Voverflow
p282
I20
sVtime
p283
I-1353
ssa(dp284
Voff
p285
(dp286
Voverflow
p287
I4
sVtime
p288
I26461
ssVcharge
p289
(dp290
Voverflow
p291
I0
sVcycles
p292
I205
ssVoverall
p293
(dp294
Voverflow
p295
I6
sVtime
p296
I6249
ssasVoff
p297
(dp298
Voverflow
p299
I20
sVtime
p300
I-809
ssa(dp301
Voverall
p302
(dp303
Voverflow
p304
I32
sVtime
p305
I1147
ssVcharge
p306
(dp307
Voverflow
p308
I0
sVcycles
p309
I971
ssVsections
p310
(lp311
(dp312
Voff
p313
(dp314
Voverflow
p315
I20
sVtime
p316
I-13820
ssVcharge
p317
(dp318
Voverflow
p319
I0
sVcycles
p320
I745
ssVoverall
p321
(dp322
Voverflow
p323
I25
sVtime
p324
I-17271
ssa(dp325
Voff
p326
(dp327
Voverflow
p328
I6
sVtime
p329
I104
ssVcharge
p330
(dp331
Voverflow
p332
I0
sVcycles
p333
I221
ssVoverall
p334
(dp335
Voverflow
p336
I7
sVtime
p337
I13014
ssasVoff
p338
(dp339
Voverflow
p340
I26
sVtime
p341
I-9295
ssa(dp342
Voverall
p343
(dp344
Voverflow
p345
I32
sVtime
p346
I7102
ssVcharge
p347
(dp348
Voverflow
p349
I0
sVcycles
p350
I972
ssVsections
p351
(lp352
(dp353
Voff
p354
(dp355
Voverflow
p356
I20
sVtime
p357
I-2829
ssVcharge
p358
(dp359
Voverflow
p360
I0
sVcycles
p361
I749
ssVoverall
p362
(dp363
Voverflow
p364
I25
sVtime
p365
I-6254
ssa(dp366
Voff
p367
(dp368
Voverflow
p369
I6
sVtime
p370
I-4593
ssVcharge
p371
(dp372
Voverflow
p373
I0
sVcycles
p374
I218
ssVoverall
p375
(dp376
Voverflow
p377
I7
sVtime
p378
I7952
ssasVoff
p379
(dp380
Voverflow
p381
I26
sVtime
p382
I-3009
ssa(dp383
Voverall
p384
(dp385
Voverflow
p386
I32
sVtime
p387
I-23931
ssVcharge
p388
(dp389
Voverflow
p390
I0
sVcycles
p391
I961
ssVsections
p392
(lp393
(dp394
Voff
p395
(dp396
Voverflow
p397
I20
sVtime
p398
I-20550
ssVcharge
p399
(dp400
Voverflow
p401
I0
sVcycles
p402
I741
ssVoverall
p403
(dp404
Voverflow
p405
I25
sVtime
p406
I-24594
ssa(dp407
Voff
p408
(dp409
Voverflow
p410
I5
sVtime
p411
I15365
ssVcharge
p412
(dp413
Voverflow
p414
I0
sVcycles
p415
I215
ssVoverall
p416
(dp417
Voverflow
p418
I7
sVtime
p419
I-4518
ssasVoff
p420
(dp421
Voverflow
p422
I25
sVtime
p423
I-1014
ssa(dp424
Voverall
p425
(dp426
Voverflow
p427
I24
sVtime
p428
I13777
ssVcharge
p429
(dp430
Voverflow
p431
I0
sVcycles
p432
I863
ssVsections
p433
(lp434
(dp435
Voff
p436
(dp437
Voverflow
p438
I14
sVtime
p439
I459
ssVcharge
p440
(dp441
Voverflow
p442
I0
sVcycles
p443
I664
ssVoverall
p444
(dp445
Voverflow
p446
I19
sVtime
p447
I-5821
ssa(dp448
Voff
p449
(dp450
Voverflow
p451
I4
sVtime
p452
I3497
ssVcharge
p453
(dp454
Voverflow
p455
I0
sVcycles
p456
I195
ssVoverall
p457
(dp458
Voverflow
p459
I5
sVtime
p460
I15725
ssasVoff
p461
(dp462
Voverflow
p463
I18
sVtime
p464
I6967
ssasVeid
p465
I54
sVtile_size
p466
I128
sVbackend
p467
Vtile
p468
s.