(dp0
Vlea
p1
I01
sVcommands
p2
(lp3
Vrm bld/gcc/*.{out,o,d}
p4
aVfind ext/libdnn -name '*.a' -or -name '*.o' | xargs rm
p5
aVfind ext/libdsp -name '*.a' -or -name '*.o' | xargs rm
p6
aVmake -j4 bld/gcc/all TARGET=mnist BACKEND=lea TRIALS=11 MAT_BUF_SIZE=0x310 LAYER_BUF_SIZE=0x3000 TILE_SIZE=16
p7
asVtarget
p8
Vmnist
p9
sVdma
p10
I2
sS'mem'
p11
S':020000040003F7\n:10A00000FFFFFFFFFFFFFFFFFFFFFFFFFFFFFFFF60\n:10A01000FFFFFFFFFFFFFFFFFFFFFFFFFFFFFFFF50\n:10A02000FFFFFFFFFFFFFFFFFFFFFFFFFFFFFFFF40\n:10A03000FFFFFFFFFFFFFFFFFFFFFFFFFFFFFFFF30\n:00000001FF\n'
p12
sS'trials'
p13
(lp14
(dp15
Voverall
p16
(dp17
Voverflow
p18
I4
sVtime
p19
I3228
ssVcharge
p20
(dp21
Voverflow
p22
I0
sVcycles
p23
I145
ssVsections
p24
(lp25
(dp26
Voff
p27
(dp28
Voverflow
p29
I1
sVtime
p30
I-3569
ssVcharge
p31
(dp32
Voverflow
p33
I0
sVcycles
p34
I45
ssVoverall
p35
(dp36
Voverflow
p37
I1
sVtime
p38
I7657
ssa(dp39
Voff
p40
(dp41
Voverflow
p42
I2
sVtime
p43
I-7739
ssVcharge
p44
(dp45
Voverflow
p46
I0
sVcycles
p47
I85
ssVoverall
p48
(dp49
Voverflow
p50
I3
sVtime
p51
I-18050
ssa(dp52
Voff
p53
(dp54
Voverflow
p55
I0
sVtime
p56
I4148
ssVcharge
p57
(dp58
Voverflow
p59
I0
sVcycles
p60
I6
ssVoverall
p61
(dp62
Voverflow
p63
I0
sVtime
p64
I5588
ssasVoff
p65
(dp66
Voverflow
p67
I3
sVtime
p68
I-1117
ssa(dp69
Voverall
p70
(dp71
Voverflow
p72
I4
sVtime
p73
I2111
ssVcharge
p74
(dp75
Voverflow
p76
I0
sVcycles
p77
I145
ssVsections
p78
(lp79
(dp80
Voff
p81
(dp82
Voverflow
p83
I1
sVtime
p84
I-2997
ssVcharge
p85
(dp86
Voverflow
p87
I0
sVcycles
p88
I45
ssVoverall
p89
(dp90
Voverflow
p91
I1
sVtime
p92
I8046
ssa(dp93
Voff
p94
(dp95
Voverflow
p96
I2
sVtime
p97
I-9093
ssVcharge
p98
(dp99
Voverflow
p100
I0
sVcycles
p101
I85
ssVoverall
p102
(dp103
Voverflow
p104
I3
sVtime
p105
I-19254
ssa(dp106
Voff
p107
(dp108
Voverflow
p109
I0
sVtime
p110
I3849
ssVcharge
p111
(dp112
Voverflow
p113
I0
sVcycles
p114
I6
ssVoverall
p115
(dp116
Voverflow
p117
I0
sVtime
p118
I5336
ssasVoff
p119
(dp120
Voverflow
p121
I3
sVtime
p122
I-2256
ssa(dp123
Voverall
p124
(dp125
Voverflow
p126
I4
sVtime
p127
I1852
ssVcharge
p128
(dp129
Voverflow
p130
I0
sVcycles
p131
I144
ssVsections
p132
(lp133
(dp134
Voff
p135
(dp136
Voverflow
p137
I1
sVtime
p138
I-584
ssVcharge
p139
(dp140
Voverflow
p141
I0
sVcycles
p142
I46
ssVoverall
p143
(dp144
Voverflow
p145
I1
sVtime
p146
I10438
ssa(dp147
Voff
p148
(dp149
Voverflow
p150
I2
sVtime
p151
I-11542
ssVcharge
p152
(dp153
Voverflow
p154
I0
sVcycles
p155
I83
ssVoverall
p156
(dp157
Voverflow
p158
I2
sVtime
p159
I10916
ssa(dp160
Voff
p161
(dp162
Voverflow
p163
I0
sVtime
p164
I3870
ssVcharge
p165
(dp166
Voverflow
p167
I0
sVcycles
p168
I6
ssVoverall
p169
(dp170
Voverflow
p171
I0
sVtime
p172
I5351
ssasVoff
p173
(dp174
Voverflow
p175
I3
sVtime
p176
I-2340
ssa(dp177
Voverall
p178
(dp179
Voverflow
p180
I4
sVtime
p181
I-473
ssVcharge
p182
(dp183
Voverflow
p184
I0
sVcycles
p185
I143
ssVsections
p186
(lp187
(dp188
Voff
p189
(dp190
Voverflow
p191
I1
sVtime
p192
I-2569
ssVcharge
p193
(dp194
Voverflow
p195
I0
sVcycles
p196
I45
ssVoverall
p197
(dp198
Voverflow
p199
I1
sVtime
p200
I8407
ssa(dp201
Voff
p202
(dp203
Voverflow
p204
I2
sVtime
p205
I-12026
ssVcharge
p206
(dp207
Voverflow
p208
I0
sVcycles
p209
I83
ssVoverall
p210
(dp211
Voverflow
p212
I2
sVtime
p213
I10426
ssa(dp214
Voff
p215
(dp216
Voverflow
p217
I0
sVtime
p218
I3937
ssVcharge
p219
(dp220
Voverflow
p221
I0
sVcycles
p222
I6
ssVoverall
p223
(dp224
Voverflow
p225
I0
sVtime
p226
I5403
ssasVoff
p227
(dp228
Voverflow
p229
I3
sVtime
p230
I-4587
ssa(dp231
Voverall
p232
(dp233
Voverflow
p234
I4
sVtime
p235
I-771
ssVcharge
p236
(dp237
Voverflow
p238
I0
sVcycles
p239
I143
ssVsections
p240
(lp241
(dp242
Voff
p243
(dp244
Voverflow
p245
I1
sVtime
p246
I-3966
ssVcharge
p247
(dp248
Voverflow
p249
I0
sVcycles
p250
I44
ssVoverall
p251
(dp252
Voverflow
p253
I1
sVtime
p254
I6948
ssa(dp255
Voff
p256
(dp257
Voverflow
p258
I1
sVtime
p259
I21961
ssVcharge
p260
(dp261
Voverflow
p262
I0
sVcycles
p263
I84
ssVoverall
p264
(dp265
Voverflow
p266
I2
sVtime
p267
I11776
ssa(dp268
Voff
p269
(dp270
Voverflow
p271
I1
sVtime
p272
I-28847
ssVcharge
p273
(dp274
Voverflow
p275
I0
sVcycles
p276
I6
ssVoverall
p277
(dp278
Voverflow
p279
I0
sVtime
p280
I5388
ssasVoff
p281
(dp282
Voverflow
p283
I3
sVtime
p284
I-4973
ssa(dp285
Voverall
p286
(dp287
Voverflow
p288
I4
sVtime
p289
I-898
ssVcharge
p290
(dp291
Voverflow
p292
I0
sVcycles
p293
I143
ssVsections
p294
(lp295
(dp296
Voff
p297
(dp298
Voverflow
p299
I1
sVtime
p300
I-4298
ssVcharge
p301
(dp302
Voverflow
p303
I0
sVcycles
p304
I44
ssVoverall
p305
(dp306
Voverflow
p307
I1
sVtime
p308
I6667
ssa(dp309
Voff
p310
(dp311
Voverflow
p312
I1
sVtime
p313
I22076
ssVcharge
p314
(dp315
Voverflow
p316
I0
sVcycles
p317
I84
ssVoverall
p318
(dp319
Voverflow
p320
I2
sVtime
p321
I11872
ssa(dp322
Voff
p323
(dp324
Voverflow
p325
I0
sVtime
p326
I3984
ssVcharge
p327
(dp328
Voverflow
p329
I0
sVcycles
p330
I6
ssVoverall
p331
(dp332
Voverflow
p333
I0
sVtime
p334
I5456
ssasVoff
p335
(dp336
Voverflow
p337
I2
sVtime
p338
I27626
ssa(dp339
Voverall
p340
(dp341
Voverflow
p342
I4
sVtime
p343
I-1587
ssVcharge
p344
(dp345
Voverflow
p346
I0
sVcycles
p347
I142
ssVsections
p348
(lp349
(dp350
Voff
p351
(dp352
Voverflow
p353
I0
sVtime
p354
I28796
ssVcharge
p355
(dp356
Voverflow
p357
I0
sVcycles
p358
I44
ssVoverall
p359
(dp360
Voverflow
p361
I1
sVtime
p362
I6966
ssa(dp363
Voff
p364
(dp365
Voverflow
p366
I2
sVtime
p367
I-11464
ssVcharge
p368
(dp369
Voverflow
p370
I0
sVcycles
p371
I83
ssVoverall
p372
(dp373
Voverflow
p374
I2
sVtime
p375
I10993
ssa(dp376
Voff
p377
(dp378
Voverflow
p379
I0
sVtime
p380
I3967
ssVcharge
p381
(dp382
Voverflow
p383
I0
sVcycles
p384
I6
ssVoverall
p385
(dp386
Voverflow
p387
I0
sVtime
p388
I5432
ssasVoff
p389
(dp390
Voverflow
p391
I2
sVtime
p392
I27069
ssa(dp393
Voverall
p394
(dp395
Voverflow
p396
I4
sVtime
p397
I2241
ssVcharge
p398
(dp399
Voverflow
p400
I0
sVcycles
p401
I145
ssVsections
p402
(lp403
(dp404
Voff
p405
(dp406
Voverflow
p407
I1
sVtime
p408
I-2763
ssVcharge
p409
(dp410
Voverflow
p411
I0
sVcycles
p412
I45
ssVoverall
p413
(dp414
Voverflow
p415
I2
sVtime
p416
I-24540
ssa(dp417
Voff
p418
(dp419
Voverflow
p420
I2
sVtime
p421
I-9184
ssVcharge
p422
(dp423
Voverflow
p424
I0
sVcycles
p425
I85
ssVoverall
p426
(dp427
Voverflow
p428
I2
sVtime
p429
I13404
ssa(dp430
Voff
p431
(dp432
Voverflow
p433
I0
sVtime
p434
I3950
ssVcharge
p435
(dp436
Voverflow
p437
I0
sVcycles
p438
I6
ssVoverall
p439
(dp440
Voverflow
p441
I0
sVtime
p442
I5415
ssasVoff
p443
(dp444
Voverflow
p445
I3
sVtime
p446
I-2033
ssa(dp447
Voverall
p448
(dp449
Voverflow
p450
I4
sVtime
p451
I-5583
ssVcharge
p452
(dp453
Voverflow
p454
I0
sVcycles
p455
I140
ssVsections
p456
(lp457
(dp458
Voff
p459
(dp460
Voverflow
p461
I1
sVtime
p462
I-5370
ssVcharge
p463
(dp464
Voverflow
p465
I0
sVcycles
p466
I43
ssVoverall
p467
(dp468
Voverflow
p469
I2
sVtime
p470
I-27282
ssa(dp471
Voff
p472
(dp473
Voverflow
p474
I2
sVtime
p475
I-13806
ssVcharge
p476
(dp477
Voverflow
p478
I0
sVcycles
p479
I82
ssVoverall
p480
(dp481
Voverflow
p482
I2
sVtime
p483
I8707
ssa(dp484
Voff
p485
(dp486
Voverflow
p487
I0
sVtime
p488
I3813
ssVcharge
p489
(dp490
Voverflow
p491
I0
sVcycles
p492
I6
ssVoverall
p493
(dp494
Voverflow
p495
I0
sVtime
p496
I5304
ssasVoff
p497
(dp498
Voverflow
p499
I3
sVtime
p500
I-9714
ssa(dp501
Voverall
p502
(dp503
Voverflow
p504
I4
sVtime
p505
I-5406
ssVcharge
p506
(dp507
Voverflow
p508
I0
sVcycles
p509
I140
ssVsections
p510
(lp511
(dp512
Voff
p513
(dp514
Voverflow
p515
I1
sVtime
p516
I-4665
ssVcharge
p517
(dp518
Voverflow
p519
I0
sVcycles
p520
I44
ssVoverall
p521
(dp522
Voverflow
p523
I1
sVtime
p524
I6350
ssa(dp525
Voff
p526
(dp527
Voverflow
p528
I2
sVtime
p529
I-13634
ssVcharge
p530
(dp531
Voverflow
p532
I0
sVcycles
p533
I82
ssVoverall
p534
(dp535
Voverflow
p536
I2
sVtime
p537
I8862
ssa(dp538
Voff
p539
(dp540
Voverflow
p541
I0
sVtime
p542
I3727
ssVcharge
p543
(dp544
Voverflow
p545
I0
sVcycles
p546
I6
ssVoverall
p547
(dp548
Voverflow
p549
I0
sVtime
p550
I5235
ssasVoff
p551
(dp552
Voverflow
p553
I3
sVtime
p554
I-9496
ssa(dp555
Voverall
p556
(dp557
Voverflow
p558
I4
sVtime
p559
I-5600
ssVcharge
p560
(dp561
Voverflow
p562
I0
sVcycles
p563
I140
ssVsections
p564
(lp565
(dp566
Voff
p567
(dp568
Voverflow
p569
I1
sVtime
p570
I-5594
ssVcharge
p571
(dp572
Voverflow
p573
I0
sVcycles
p574
I43
ssVoverall
p575
(dp576
Voverflow
p577
I1
sVtime
p578
I5331
ssa(dp579
Voff
p580
(dp581
Voverflow
p582
I1
sVtime
p583
I19163
ssVcharge
p584
(dp585
Voverflow
p586
I0
sVcycles
p587
I82
ssVoverall
p588
(dp589
Voverflow
p590
I3
sVtime
p591
I-23873
ssa(dp592
Voff
p593
(dp594
Voverflow
p595
I1
sVtime
p596
I-29028
ssVcharge
p597
(dp598
Voverflow
p599
I0
sVcycles
p600
I6
ssVoverall
p601
(dp602
Voverflow
p603
I0
sVtime
p604
I5236
ssasVoff
p605
(dp606
Voverflow
p607
I3
sVtime
p608
I-9791
ssasVeid
p609
I8
sVtile_size
p610
I16
sVbackend
p611
Vlea_fir
p612
s.