(dp0
Vlea
p1
I00
sVcommands
p2
(lp3
Vrm bld/gcc/*.{out,o,d}
p4
aVfind ext/libdnn -name '*.a' -or -name '*.o' | xargs rm
p5
aVmake -j4 bld/gcc/all TARGET=har BACKEND=tile TRIALS=11 MAT_BUF_SIZE=0x310 LAYER_BUF_SIZE=0x3000 TILE_SIZE=32
p6
asVtarget
p7
Vhar
p8
sVdma
p9
I0
sS'mem'
p10
S':020000040003F7\n:10A00000010001000000010001000000010001004A\n:10A01000000001000100000001000100000001003B\n:10A02000010000000100010000000100010000002B\n:10A03000010001000000010001000000010001001A\n:00000001FF\n'
p11
sS'trials'
p12
(lp13
(dp14
Voverall
p15
(dp16
Voverflow
p17
I19
sVtime
p18
I-13170
ssVcharge
p19
(dp20
Voverflow
p21
I0
sVcycles
p22
I13
ssVsections
p23
(lp24
(dp25
Voff
p26
(dp27
Voverflow
p28
I0
sVtime
p29
I26010
ssVcharge
p30
(dp31
Voverflow
p32
I0
sVcycles
p33
I1
ssVoverall
p34
(dp35
Voverflow
p36
I4
sVtime
p37
I-13026
ssa(dp38
Voff
p39
(dp40
Voverflow
p41
I10
sVtime
p42
I-8183
ssVcharge
p43
(dp44
Voverflow
p45
I0
sVcycles
p46
I12
ssVoverall
p47
(dp48
Voverflow
p49
I15
sVtime
p50
I-6327
ssasVoff
p51
(dp52
Voverflow
p53
I10
sVtime
p54
I17827
ssa(dp55
Voverall
p56
(dp57
Voverflow
p58
I24
sVtime
p59
I-14725
ssVcharge
p60
(dp61
Voverflow
p62
I0
sVcycles
p63
I19
ssVsections
p64
(lp65
(dp66
Voff
p67
(dp68
Voverflow
p69
I6
sVtime
p70
I-9448
ssVcharge
p71
(dp72
Voverflow
p73
I0
sVcycles
p74
I7
ssVoverall
p75
(dp76
Voverflow
p77
I9
sVtime
p78
I-15733
ssa(dp79
Voff
p80
(dp81
Voverflow
p82
I10
sVtime
p83
I-7138
ssVcharge
p84
(dp85
Voverflow
p86
I0
sVcycles
p87
I12
ssVoverall
p88
(dp89
Voverflow
p90
I15
sVtime
p91
I-5177
ssasVoff
p92
(dp93
Voverflow
p94
I16
sVtime
p95
I-16586
ssa(dp96
Voverall
p97
(dp98
Voverflow
p99
I23
sVtime
p100
I17941
ssVcharge
p101
(dp102
Voverflow
p103
I0
sVcycles
p104
I19
ssVsections
p105
(lp106
(dp107
Voff
p108
(dp109
Voverflow
p110
I5
sVtime
p111
I-3710
ssVcharge
p112
(dp113
Voverflow
p114
I0
sVcycles
p115
I6
ssVoverall
p116
(dp117
Voverflow
p118
I7
sVtime
p119
I22756
ssa(dp120
Voff
p121
(dp122
Voverflow
p123
I10
sVtime
p124
I-7079
ssVcharge
p125
(dp126
Voverflow
p127
I0
sVcycles
p128
I12
ssVoverall
p129
(dp130
Voverflow
p131
I15
sVtime
p132
I-5122
ssasVoff
p133
(dp134
Voverflow
p135
I15
sVtime
p136
I16103
ssa(dp137
Voverall
p138
(dp139
Voverflow
p140
I23
sVtime
p141
I-8538
ssVcharge
p142
(dp143
Voverflow
p144
I0
sVcycles
p145
I18
ssVsections
p146
(lp147
(dp148
Voff
p149
(dp150
Voverflow
p151
I5
sVtime
p152
I-3505
ssVcharge
p153
(dp154
Voverflow
p155
I0
sVcycles
p156
I6
ssVoverall
p157
(dp158
Voverflow
p159
I8
sVtime
p160
I-9786
ssa(dp161
Voff
p162
(dp163
Voverflow
p164
I10
sVtime
p165
I-6835
ssVcharge
p166
(dp167
Voverflow
p168
I0
sVcycles
p169
I12
ssVoverall
p170
(dp171
Voverflow
p172
I15
sVtime
p173
I-4932
ssasVoff
p174
(dp175
Voverflow
p176
I15
sVtime
p177
I-10340
ssa(dp178
Voverall
p179
(dp180
Voverflow
p181
I23
sVtime
p182
I17572
ssVcharge
p183
(dp184
Voverflow
p185
I0
sVcycles
p186
I19
ssVsections
p187
(lp188
(dp189
Voff
p190
(dp191
Voverflow
p192
I6
sVtime
p193
I-9688
ssVcharge
p194
(dp195
Voverflow
p196
I0
sVcycles
p197
I7
ssVoverall
p198
(dp199
Voverflow
p200
I8
sVtime
p201
I16808
ssa(dp202
Voff
p203
(dp204
Voverflow
p205
I9
sVtime
p206
I25482
ssVcharge
p207
(dp208
Voverflow
p209
I0
sVcycles
p210
I12
ssVoverall
p211
(dp212
Voverflow
p213
I14
sVtime
p214
I27350
ssasVoff
p215
(dp216
Voverflow
p217
I15
sVtime
p218
I15794
ssa(dp219
Voverall
p220
(dp221
Voverflow
p222
I24
sVtime
p223
I-14485
ssVcharge
p224
(dp225
Voverflow
p226
I0
sVcycles
p227
I19
ssVsections
p228
(lp229
(dp230
Voff
p231
(dp232
Voverflow
p233
I5
sVtime
p234
I-3282
ssVcharge
p235
(dp236
Voverflow
p237
I0
sVcycles
p238
I6
ssVoverall
p239
(dp240
Voverflow
p241
I8
sVtime
p242
I-9604
ssa(dp243
Voff
p244
(dp245
Voverflow
p246
I10
sVtime
p247
I-7092
ssVcharge
p248
(dp249
Voverflow
p250
I0
sVcycles
p251
I12
ssVoverall
p252
(dp253
Voverflow
p254
I15
sVtime
p255
I-5151
ssasVoff
p256
(dp257
Voverflow
p258
I16
sVtime
p259
I-16292
ssa(dp260
Voverall
p261
(dp262
Voverflow
p263
I23
sVtime
p264
I-7978
ssVcharge
p265
(dp266
Voverflow
p267
I0
sVcycles
p268
I18
ssVsections
p269
(lp270
(dp271
Voff
p272
(dp273
Voverflow
p274
I5
sVtime
p275
I-3298
ssVcharge
p276
(dp277
Voverflow
p278
I0
sVcycles
p279
I6
ssVoverall
p280
(dp281
Voverflow
p282
I8
sVtime
p283
I-9547
ssa(dp284
Voff
p285
(dp286
Voverflow
p287
I9
sVtime
p288
I-640
ssVcharge
p289
(dp290
Voverflow
p291
I0
sVcycles
p292
I11
ssVoverall
p293
(dp294
Voverflow
p295
I14
sVtime
p296
I1353
ssasVoff
p297
(dp298
Voverflow
p299
I15
sVtime
p300
I-9907
ssa(dp301
Voverall
p302
(dp303
Voverflow
p304
I23
sVtime
p305
I18751
ssVcharge
p306
(dp307
Voverflow
p308
I0
sVcycles
p309
I19
ssVsections
p310
(lp311
(dp312
Voff
p313
(dp314
Voverflow
p315
I5
sVtime
p316
I23657
ssVcharge
p317
(dp318
Voverflow
p319
I0
sVcycles
p320
I7
ssVoverall
p321
(dp322
Voverflow
p323
I8
sVtime
p324
I17423
ssa(dp325
Voff
p326
(dp327
Voverflow
p328
I10
sVtime
p329
I-6804
ssVcharge
p330
(dp331
Voverflow
p332
I0
sVcycles
p333
I12
ssVoverall
p334
(dp335
Voverflow
p336
I15
sVtime
p337
I-4853
ssasVoff
p338
(dp339
Voverflow
p340
I15
sVtime
p341
I16853
ssa(dp342
Voverall
p343
(dp344
Voverflow
p345
I24
sVtime
p346
I-14506
ssVcharge
p347
(dp348
Voverflow
p349
I0
sVcycles
p350
I19
ssVsections
p351
(lp352
(dp353
Voff
p354
(dp355
Voverflow
p356
I6
sVtime
p357
I-9302
ssVcharge
p358
(dp359
Voverflow
p360
I0
sVcycles
p361
I7
ssVoverall
p362
(dp363
Voverflow
p364
I9
sVtime
p365
I-15548
ssa(dp366
Voff
p367
(dp368
Voverflow
p369
I10
sVtime
p370
I-7002
ssVcharge
p371
(dp372
Voverflow
p373
I0
sVcycles
p374
I12
ssVoverall
p375
(dp376
Voverflow
p377
I15
sVtime
p378
I-5141
ssasVoff
p379
(dp380
Voverflow
p381
I16
sVtime
p382
I-16304
ssa(dp383
Voverall
p384
(dp385
Voverflow
p386
I23
sVtime
p387
I18323
ssVcharge
p388
(dp389
Voverflow
p390
I0
sVcycles
p391
I19
ssVsections
p392
(lp393
(dp394
Voff
p395
(dp396
Voverflow
p397
I4
sVtime
p398
I29514
ssVcharge
p399
(dp400
Voverflow
p401
I0
sVcycles
p402
I6
ssVoverall
p403
(dp404
Voverflow
p405
I8
sVtime
p406
I-9571
ssa(dp407
Voff
p408
(dp409
Voverflow
p410
I10
sVtime
p411
I-6814
ssVcharge
p412
(dp413
Voverflow
p414
I0
sVcycles
p415
I12
ssVoverall
p416
(dp417
Voverflow
p418
I14
sVtime
p419
I27882
ssasVoff
p420
(dp421
Voverflow
p422
I15
sVtime
p423
I16521
ssa(dp424
Voverall
p425
(dp426
Voverflow
p427
I23
sVtime
p428
I-8470
ssVcharge
p429
(dp430
Voverflow
p431
I0
sVcycles
p432
I18
ssVsections
p433
(lp434
(dp435
Voff
p436
(dp437
Voverflow
p438
I5
sVtime
p439
I-3321
ssVcharge
p440
(dp441
Voverflow
p442
I0
sVcycles
p443
I6
ssVoverall
p444
(dp445
Voverflow
p446
I8
sVtime
p447
I-9570
ssa(dp448
Voff
p449
(dp450
Voverflow
p451
I9
sVtime
p452
I-853
ssVcharge
p453
(dp454
Voverflow
p455
I0
sVcycles
p456
I11
ssVoverall
p457
(dp458
Voverflow
p459
I14
sVtime
p460
I1023
ssasVoff
p461
(dp462
Voverflow
p463
I15
sVtime
p464
I-10280
ssasVeid
p465
I15
sVtile_size
p466
I32
sVbackend
p467
Vtile
p468
s.