(dp0
Vlea
p1
I00
sVcommands
p2
(lp3
Vrm bld/gcc/*.{out,o,d}
p4
aVfind ext/libdnn -name '*.a' -or -name '*.o' | xargs rm
p5
aVmake -j4 bld/gcc/all TARGET=okg BACKEND=tile TRIALS=11 MAT_BUF_SIZE=0x200 LAYER_BUF_SIZE=0x1d10 TILE_SIZE=8
p6
asVtarget
p7
Vokg
p8
sVdma
p9
I0
sS'mem'
p10
S':020000040003F7\n:10A000000100010001000100010001000100010048\n:10A010000100010001000100010003001300020023\n:10A020000100010001000100010001000100010028\n:10A030000100010001000100160003000100010001\n:00000001FF\n'
p11
sS'trials'
p12
(lp13
(dp14
Voverall
p15
(dp16
Voverflow
p17
I30
sVtime
p18
I-8285
ssVcharge
p19
(dp20
Voverflow
p21
I0
sVcycles
p22
I22
ssVsections
p23
(lp24
(dp25
Voff
p26
(dp27
Voverflow
p28
I13
sVtime
p29
I238
ssVcharge
p30
(dp31
Voverflow
p32
I0
sVcycles
p33
I16
ssVoverall
p34
(dp35
Voverflow
p36
I22
sVtime
p37
I7997
ssa(dp38
Voff
p39
(dp40
Voverflow
p41
I5
sVtime
p42
I-3399
ssVcharge
p43
(dp44
Voverflow
p45
I0
sVcycles
p46
I6
ssVoverall
p47
(dp48
Voverflow
p49
I8
sVtime
p50
I-17139
ssasVoff
p51
(dp52
Voverflow
p53
I18
sVtime
p54
I-3161
ssa(dp55
Voverall
p56
(dp57
Voverflow
p58
I34
sVtime
p59
I23909
ssVcharge
p60
(dp61
Voverflow
p62
I0
sVcycles
p63
I28
ssVsections
p64
(lp65
(dp66
Voff
p67
(dp68
Voverflow
p69
I18
sVtime
p70
I-547
ssVcharge
p71
(dp72
Voverflow
p73
I0
sVcycles
p74
I22
ssVoverall
p75
(dp76
Voverflow
p77
I27
sVtime
p78
I7445
ssa(dp79
Voff
p80
(dp81
Voverflow
p82
I5
sVtime
p83
I-3424
ssVcharge
p84
(dp85
Voverflow
p86
I0
sVcycles
p87
I6
ssVoverall
p88
(dp89
Voverflow
p90
I7
sVtime
p91
I15608
ssasVoff
p92
(dp93
Voverflow
p94
I23
sVtime
p95
I-3971
ssa(dp96
Voverall
p97
(dp98
Voverflow
p99
I35
sVtime
p100
I-10207
ssVcharge
p101
(dp102
Voverflow
p103
I0
sVcycles
p104
I28
ssVsections
p105
(lp106
(dp107
Voff
p108
(dp109
Voverflow
p110
I18
sVtime
p111
I-1872
ssVcharge
p112
(dp113
Voverflow
p114
I0
sVcycles
p115
I22
ssVoverall
p116
(dp117
Voverflow
p118
I27
sVtime
p119
I6061
ssa(dp120
Voff
p121
(dp122
Voverflow
p123
I5
sVtime
p124
I-3429
ssVcharge
p125
(dp126
Voverflow
p127
I0
sVcycles
p128
I6
ssVoverall
p129
(dp130
Voverflow
p131
I7
sVtime
p132
I15641
ssasVoff
p133
(dp134
Voverflow
p135
I23
sVtime
p136
I-5301
ssa(dp137
Voverall
p138
(dp139
Voverflow
p140
I35
sVtime
p141
I-9621
ssVcharge
p142
(dp143
Voverflow
p144
I0
sVcycles
p145
I28
ssVsections
p146
(lp147
(dp148
Voff
p149
(dp150
Voverflow
p151
I18
sVtime
p152
I-1403
ssVcharge
p153
(dp154
Voverflow
p155
I0
sVcycles
p156
I22
ssVoverall
p157
(dp158
Voverflow
p159
I27
sVtime
p160
I6724
ssa(dp161
Voff
p162
(dp163
Voverflow
p164
I4
sVtime
p165
I29284
ssVcharge
p166
(dp167
Voverflow
p168
I0
sVcycles
p169
I6
ssVoverall
p170
(dp171
Voverflow
p172
I8
sVtime
p173
I-17202
ssasVoff
p174
(dp175
Voverflow
p176
I22
sVtime
p177
I27881
ssa(dp178
Voverall
p179
(dp180
Voverflow
p181
I34
sVtime
p182
I22585
ssVcharge
p183
(dp184
Voverflow
p185
I0
sVcycles
p186
I28
ssVsections
p187
(lp188
(dp189
Voff
p190
(dp191
Voverflow
p192
I18
sVtime
p193
I-1987
ssVcharge
p194
(dp195
Voverflow
p196
I0
sVcycles
p197
I22
ssVoverall
p198
(dp199
Voverflow
p200
I27
sVtime
p201
I6221
ssa(dp202
Voff
p203
(dp204
Voverflow
p205
I5
sVtime
p206
I-3632
ssVcharge
p207
(dp208
Voverflow
p209
I0
sVcycles
p210
I6
ssVoverall
p211
(dp212
Voverflow
p213
I7
sVtime
p214
I15506
ssasVoff
p215
(dp216
Voverflow
p217
I23
sVtime
p218
I-5619
ssa(dp219
Voverall
p220
(dp221
Voverflow
p222
I35
sVtime
p223
I-9647
ssVcharge
p224
(dp225
Voverflow
p226
I0
sVcycles
p227
I28
ssVsections
p228
(lp229
(dp230
Voff
p231
(dp232
Voverflow
p233
I18
sVtime
p234
I-1613
ssVcharge
p235
(dp236
Voverflow
p237
I0
sVcycles
p238
I22
ssVoverall
p239
(dp240
Voverflow
p241
I28
sVtime
p242
I-26144
ssa(dp243
Voff
p244
(dp245
Voverflow
p246
I5
sVtime
p247
I-3408
ssVcharge
p248
(dp249
Voverflow
p250
I0
sVcycles
p251
I6
ssVoverall
p252
(dp253
Voverflow
p254
I7
sVtime
p255
I15640
ssasVoff
p256
(dp257
Voverflow
p258
I23
sVtime
p259
I-5021
ssa(dp260
Voverall
p261
(dp262
Voverflow
p263
I35
sVtime
p264
I-9933
ssVcharge
p265
(dp266
Voverflow
p267
I0
sVcycles
p268
I28
ssVsections
p269
(lp270
(dp271
Voff
p272
(dp273
Voverflow
p274
I18
sVtime
p275
I-1800
ssVcharge
p276
(dp277
Voverflow
p278
I0
sVcycles
p279
I22
ssVoverall
p280
(dp281
Voverflow
p282
I27
sVtime
p283
I6353
ssa(dp284
Voff
p285
(dp286
Voverflow
p287
I5
sVtime
p288
I-3436
ssVcharge
p289
(dp290
Voverflow
p291
I0
sVcycles
p292
I6
ssVoverall
p293
(dp294
Voverflow
p295
I8
sVtime
p296
I-17144
ssasVoff
p297
(dp298
Voverflow
p299
I23
sVtime
p300
I-5236
ssa(dp301
Voverall
p302
(dp303
Voverflow
p304
I34
sVtime
p305
I22576
ssVcharge
p306
(dp307
Voverflow
p308
I0
sVcycles
p309
I28
ssVsections
p310
(lp311
(dp312
Voff
p313
(dp314
Voverflow
p315
I18
sVtime
p316
I-2030
ssVcharge
p317
(dp318
Voverflow
p319
I0
sVcycles
p320
I22
ssVoverall
p321
(dp322
Voverflow
p323
I27
sVtime
p324
I5980
ssa(dp325
Voff
p326
(dp327
Voverflow
p328
I5
sVtime
p329
I-3271
ssVcharge
p330
(dp331
Voverflow
p332
I0
sVcycles
p333
I6
ssVoverall
p334
(dp335
Voverflow
p336
I7
sVtime
p337
I15740
ssasVoff
p338
(dp339
Voverflow
p340
I23
sVtime
p341
I-5301
ssa(dp342
Voverall
p343
(dp344
Voverflow
p345
I35
sVtime
p346
I-11167
ssVcharge
p347
(dp348
Voverflow
p349
I0
sVcycles
p350
I28
ssVsections
p351
(lp352
(dp353
Voff
p354
(dp355
Voverflow
p356
I18
sVtime
p357
I-2680
ssVcharge
p358
(dp359
Voverflow
p360
I0
sVcycles
p361
I22
ssVoverall
p362
(dp363
Voverflow
p364
I28
sVtime
p365
I-27605
ssa(dp366
Voff
p367
(dp368
Voverflow
p369
I5
sVtime
p370
I-3480
ssVcharge
p371
(dp372
Voverflow
p373
I0
sVcycles
p374
I6
ssVoverall
p375
(dp376
Voverflow
p377
I7
sVtime
p378
I15579
ssasVoff
p379
(dp380
Voverflow
p381
I23
sVtime
p382
I-6160
ssa(dp383
Voverall
p384
(dp385
Voverflow
p386
I35
sVtime
p387
I-9871
ssVcharge
p388
(dp389
Voverflow
p390
I0
sVcycles
p391
I28
ssVsections
p392
(lp393
(dp394
Voff
p395
(dp396
Voverflow
p397
I18
sVtime
p398
I-28138
ssVcharge
p399
(dp400
Voverflow
p401
I0
sVcycles
p402
I21
ssVoverall
p403
(dp404
Voverflow
p405
I26
sVtime
p406
I12590
ssa(dp407
Voff
p408
(dp409
Voverflow
p410
I4
sVtime
p411
I29270
ssVcharge
p412
(dp413
Voverflow
p414
I0
sVcycles
p415
I6
ssVoverall
p416
(dp417
Voverflow
p418
I8
sVtime
p419
I-17246
ssasVoff
p420
(dp421
Voverflow
p422
I22
sVtime
p423
I27829
ssa(dp424
Voverall
p425
(dp426
Voverflow
p427
I35
sVtime
p428
I16647
ssVcharge
p429
(dp430
Voverflow
p431
I0
sVcycles
p432
I29
ssVsections
p433
(lp434
(dp435
Voff
p436
(dp437
Voverflow
p438
I17
sVtime
p439
I4542
ssVcharge
p440
(dp441
Voverflow
p442
I0
sVcycles
p443
I21
ssVoverall
p444
(dp445
Voverflow
p446
I26
sVtime
p447
I12396
ssa(dp448
Voff
p449
(dp450
Voverflow
p451
I6
sVtime
p452
I-9592
ssVcharge
p453
(dp454
Voverflow
p455
I0
sVcycles
p456
I7
ssVoverall
p457
(dp458
Voverflow
p459
I8
sVtime
p460
I9397
ssasVoff
p461
(dp462
Voverflow
p463
I24
sVtime
p464
I-11055
ssasVeid
p465
I38
sVtile_size
p466
I8
sVbackend
p467
Vtile
p468
s.