(dp0
Vlea
p1
I00
sVcommands
p2
(lp3
Vrm bld/gcc/*.{out,o,d}
p4
aVfind ext/libdnn -name '*.a' -or -name '*.o' | xargs rm
p5
aVmake -j4 bld/gcc/all TARGET=mnist BACKEND=tile TRIALS=11 MAT_BUF_SIZE=0x310 LAYER_BUF_SIZE=0x3000 TILE_SIZE=128
p6
asVtarget
p7
Vmnist
p8
sVdma
p9
I0
sS'mem'
p10
S':020000040003F7\n:10A00000FFFFFFFFFFFFFFFFFFFFFFFFFFFFFFFF60\n:10A01000FFFFFFFFFFFFFFFFFFFFFFFFFFFFFFFF50\n:10A02000FFFFFFFFFFFFFFFFFFFFFFFFFFFFFFFF40\n:10A03000FFFFFFFFFFFFFFFFFFFFFFFFFFFFFFFF30\n:00000001FF\n'
p11
sS'trials'
p12
(lp13
(dp14
Voverall
p15
(dp16
Voverflow
p17
I6
sVtime
p18
I6606
ssVcharge
p19
(dp20
Voverflow
p21
I0
sVcycles
p22
I3
ssVsections
p23
(lp24
(dp25
Voff
p26
(dp27
Voverflow
p28
I0
sVtime
p29
I0
ssVcharge
p30
(dp31
Voverflow
p32
I0
sVcycles
p33
I0
ssVoverall
p34
(dp35
Voverflow
p36
I2
sVtime
p37
I-8349
ssa(dp38
Voff
p39
(dp40
Voverflow
p41
I0
sVtime
p42
I0
ssVcharge
p43
(dp44
Voverflow
p45
I0
sVcycles
p46
I0
ssVoverall
p47
(dp48
Voverflow
p49
I1
sVtime
p50
I-19908
ssa(dp51
Voff
p52
(dp53
Voverflow
p54
I3
sVtime
p55
I-18916
ssVcharge
p56
(dp57
Voverflow
p58
I0
sVcycles
p59
I3
ssVoverall
p60
(dp61
Voverflow
p62
I3
sVtime
p63
I26220
ssasVoff
p64
(dp65
Voverflow
p66
I3
sVtime
p67
I-18916
ssa(dp68
Voverall
p69
(dp70
Voverflow
p71
I12
sVtime
p72
I-28974
ssVcharge
p73
(dp74
Voverflow
p75
I0
sVcycles
p76
I9
ssVsections
p77
(lp78
(dp79
Voff
p80
(dp81
Voverflow
p82
I3
sVtime
p83
I8456
ssVcharge
p84
(dp85
Voverflow
p86
I0
sVcycles
p87
I4
ssVoverall
p88
(dp89
Voverflow
p90
I5
sVtime
p91
I217
ssa(dp92
Voff
p93
(dp94
Voverflow
p95
I0
sVtime
p96
I26716
ssVcharge
p97
(dp98
Voverflow
p99
I0
sVcycles
p100
I1
ssVoverall
p101
(dp102
Voverflow
p103
I2
sVtime
p104
I-25947
ssa(dp105
Voff
p106
(dp107
Voverflow
p108
I3
sVtime
p109
I-18164
ssVcharge
p110
(dp111
Voverflow
p112
I0
sVcycles
p113
I3
ssVoverall
p114
(dp115
Voverflow
p116
I4
sVtime
p117
I-5787
ssasVoff
p118
(dp119
Voverflow
p120
I7
sVtime
p121
I10898
ssa(dp122
Voverall
p123
(dp124
Voverflow
p125
I11
sVtime
p126
I4485
ssVcharge
p127
(dp128
Voverflow
p129
I0
sVcycles
p130
I9
ssVsections
p131
(lp132
(dp133
Voff
p134
(dp135
Voverflow
p136
I4
sVtime
p137
I2765
ssVcharge
p138
(dp139
Voverflow
p140
I0
sVcycles
p141
I5
ssVoverall
p142
(dp143
Voverflow
p144
I5
sVtime
p145
I27588
ssa(dp146
Voff
p147
(dp148
Voverflow
p149
I1
sVtime
p150
I-5977
ssVcharge
p151
(dp152
Voverflow
p153
I0
sVcycles
p154
I1
ssVoverall
p155
(dp156
Voverflow
p157
I1
sVtime
p158
I6877
ssa(dp159
Voff
p160
(dp161
Voverflow
p162
I2
sVtime
p163
I14607
ssVcharge
p164
(dp165
Voverflow
p166
I0
sVcycles
p167
I3
ssVoverall
p168
(dp169
Voverflow
p170
I4
sVtime
p171
I-5851
ssasVoff
p172
(dp173
Voverflow
p174
I7
sVtime
p175
I11395
ssa(dp176
Voverall
p177
(dp178
Voverflow
p179
I11
sVtime
p180
I4769
ssVcharge
p181
(dp182
Voverflow
p183
I0
sVcycles
p184
I9
ssVsections
p185
(lp186
(dp187
Voff
p188
(dp189
Voverflow
p190
I4
sVtime
p191
I2627
ssVcharge
p192
(dp193
Voverflow
p194
I0
sVcycles
p195
I5
ssVoverall
p196
(dp197
Voverflow
p198
I6
sVtime
p199
I-5169
ssa(dp200
Voff
p201
(dp202
Voverflow
p203
I1
sVtime
p204
I-5929
ssVcharge
p205
(dp206
Voverflow
p207
I0
sVcycles
p208
I1
ssVoverall
p209
(dp210
Voverflow
p211
I1
sVtime
p212
I6956
ssa(dp213
Voff
p214
(dp215
Voverflow
p216
I3
sVtime
p217
I-18028
ssVcharge
p218
(dp219
Voverflow
p220
I0
sVcycles
p221
I3
ssVoverall
p222
(dp223
Voverflow
p224
I4
sVtime
p225
I-5664
ssasVoff
p226
(dp227
Voverflow
p228
I8
sVtime
p229
I-21330
ssa(dp230
Voverall
p231
(dp232
Voverflow
p233
I11
sVtime
p234
I5235
ssVcharge
p235
(dp236
Voverflow
p237
I0
sVcycles
p238
I9
ssVsections
p239
(lp240
(dp241
Voff
p242
(dp243
Voverflow
p244
I4
sVtime
p245
I3066
ssVcharge
p246
(dp247
Voverflow
p248
I0
sVcycles
p249
I5
ssVoverall
p250
(dp251
Voverflow
p252
I6
sVtime
p253
I-4680
ssa(dp254
Voff
p255
(dp256
Voverflow
p257
I1
sVtime
p258
I-5981
ssVcharge
p259
(dp260
Voverflow
p261
I0
sVcycles
p262
I1
ssVoverall
p263
(dp264
Voverflow
p265
I1
sVtime
p266
I6904
ssa(dp267
Voff
p268
(dp269
Voverflow
p270
I2
sVtime
p271
I14799
ssVcharge
p272
(dp273
Voverflow
p274
I0
sVcycles
p275
I3
ssVoverall
p276
(dp277
Voverflow
p278
I4
sVtime
p279
I-5632
ssasVoff
p280
(dp281
Voverflow
p282
I7
sVtime
p283
I11884
ssa(dp284
Voverall
p285
(dp286
Voverflow
p287
I12
sVtime
p288
I-1010
ssVcharge
p289
(dp290
Voverflow
p291
I0
sVcycles
p292
I10
ssVsections
p293
(lp294
(dp295
Voff
p296
(dp297
Voverflow
p298
I3
sVtime
p299
I8948
ssVcharge
p300
(dp301
Voverflow
p302
I0
sVcycles
p303
I4
ssVoverall
p304
(dp305
Voverflow
p306
I5
sVtime
p307
I770
ssa(dp308
Voff
p309
(dp310
Voverflow
p311
I1
sVtime
p312
I-6061
ssVcharge
p313
(dp314
Voverflow
p315
I0
sVcycles
p316
I1
ssVoverall
p317
(dp318
Voverflow
p319
I1
sVtime
p320
I6801
ssa(dp321
Voff
p322
(dp323
Voverflow
p324
I3
sVtime
p325
I9051
ssVcharge
p326
(dp327
Voverflow
p328
I0
sVcycles
p329
I4
ssVoverall
p330
(dp331
Voverflow
p332
I5
sVtime
p333
I-11362
ssasVoff
p334
(dp335
Voverflow
p336
I8
sVtime
p337
I6071
ssa(dp338
Voverall
p339
(dp340
Voverflow
p341
I11
sVtime
p342
I4246
ssVcharge
p343
(dp344
Voverflow
p345
I0
sVcycles
p346
I9
ssVsections
p347
(lp348
(dp349
Voff
p350
(dp351
Voverflow
p352
I3
sVtime
p353
I8715
ssVcharge
p354
(dp355
Voverflow
p356
I0
sVcycles
p357
I4
ssVoverall
p358
(dp359
Voverflow
p360
I5
sVtime
p361
I635
ssa(dp362
Voff
p363
(dp364
Voverflow
p365
I1
sVtime
p366
I-6056
ssVcharge
p367
(dp368
Voverflow
p369
I0
sVcycles
p370
I1
ssVoverall
p371
(dp372
Voverflow
p373
I1
sVtime
p374
I6843
ssa(dp375
Voff
p376
(dp377
Voverflow
p378
I3
sVtime
p379
I8562
ssVcharge
p380
(dp381
Voverflow
p382
I0
sVcycles
p383
I4
ssVoverall
p384
(dp385
Voverflow
p386
I5
sVtime
p387
I-11869
ssasVoff
p388
(dp389
Voverflow
p390
I7
sVtime
p391
I11221
ssa(dp392
Voverall
p393
(dp394
Voverflow
p395
I11
sVtime
p396
I4611
ssVcharge
p397
(dp398
Voverflow
p399
I0
sVcycles
p400
I9
ssVsections
p401
(lp402
(dp403
Voff
p404
(dp405
Voverflow
p406
I4
sVtime
p407
I-23970
ssVcharge
p408
(dp409
Voverflow
p410
I0
sVcycles
p411
I4
ssVoverall
p412
(dp413
Voverflow
p414
I5
sVtime
p415
I891
ssa(dp416
Voff
p417
(dp418
Voverflow
p419
I1
sVtime
p420
I-5937
ssVcharge
p421
(dp422
Voverflow
p423
I0
sVcycles
p424
I1
ssVoverall
p425
(dp426
Voverflow
p427
I2
sVtime
p428
I-25854
ssa(dp429
Voff
p430
(dp431
Voverflow
p432
I3
sVtime
p433
I8587
ssVcharge
p434
(dp435
Voverflow
p436
I0
sVcycles
p437
I4
ssVoverall
p438
(dp439
Voverflow
p440
I4
sVtime
p441
I20934
ssasVoff
p442
(dp443
Voverflow
p444
I8
sVtime
p445
I-21320
ssa(dp446
Voverall
p447
(dp448
Voverflow
p449
I11
sVtime
p450
I4782
ssVcharge
p451
(dp452
Voverflow
p453
I0
sVcycles
p454
I9
ssVsections
p455
(lp456
(dp457
Voff
p458
(dp459
Voverflow
p460
I3
sVtime
p461
I8976
ssVcharge
p462
(dp463
Voverflow
p464
I0
sVcycles
p465
I4
ssVoverall
p466
(dp467
Voverflow
p468
I5
sVtime
p469
I871
ssa(dp470
Voff
p471
(dp472
Voverflow
p473
I1
sVtime
p474
I-5951
ssVcharge
p475
(dp476
Voverflow
p477
I0
sVcycles
p478
I1
ssVoverall
p479
(dp480
Voverflow
p481
I2
sVtime
p482
I-25861
ssa(dp483
Voff
p484
(dp485
Voverflow
p486
I3
sVtime
p487
I8755
ssVcharge
p488
(dp489
Voverflow
p490
I0
sVcycles
p491
I4
ssVoverall
p492
(dp493
Voverflow
p494
I4
sVtime
p495
I21127
ssasVoff
p496
(dp497
Voverflow
p498
I7
sVtime
p499
I11780
ssa(dp500
Voverall
p501
(dp502
Voverflow
p503
I12
sVtime
p504
I-27703
ssVcharge
p505
(dp506
Voverflow
p507
I0
sVcycles
p508
I9
ssVsections
p509
(lp510
(dp511
Voff
p512
(dp513
Voverflow
p514
I3
sVtime
p515
I9043
ssVcharge
p516
(dp517
Voverflow
p518
I0
sVcycles
p519
I4
ssVoverall
p520
(dp521
Voverflow
p522
I5
sVtime
p523
I1049
ssa(dp524
Voff
p525
(dp526
Voverflow
p527
I1
sVtime
p528
I-6105
ssVcharge
p529
(dp530
Voverflow
p531
I0
sVcycles
p532
I1
ssVoverall
p533
(dp534
Voverflow
p535
I1
sVtime
p536
I6762
ssa(dp537
Voff
p538
(dp539
Voverflow
p540
I4
sVtime
p541
I-23747
ssVcharge
p542
(dp543
Voverflow
p544
I0
sVcycles
p545
I4
ssVoverall
p546
(dp547
Voverflow
p548
I5
sVtime
p549
I-11394
ssasVoff
p550
(dp551
Voverflow
p552
I8
sVtime
p553
I-20809
ssa(dp554
Voverall
p555
(dp556
Voverflow
p557
I11
sVtime
p558
I4816
ssVcharge
p559
(dp560
Voverflow
p561
I0
sVcycles
p562
I9
ssVsections
p563
(lp564
(dp565
Voff
p566
(dp567
Voverflow
p568
I3
sVtime
p569
I8949
ssVcharge
p570
(dp571
Voverflow
p572
I0
sVcycles
p573
I4
ssVoverall
p574
(dp575
Voverflow
p576
I5
sVtime
p577
I998
ssa(dp578
Voff
p579
(dp580
Voverflow
p581
I1
sVtime
p582
I-6106
ssVcharge
p583
(dp584
Voverflow
p585
I0
sVcycles
p586
I1
ssVoverall
p587
(dp588
Voverflow
p589
I1
sVtime
p590
I6770
ssa(dp591
Voff
p592
(dp593
Voverflow
p594
I3
sVtime
p595
I8833
ssVcharge
p596
(dp597
Voverflow
p598
I0
sVcycles
p599
I4
ssVoverall
p600
(dp601
Voverflow
p602
I5
sVtime
p603
I-11594
ssasVoff
p604
(dp605
Voverflow
p606
I7
sVtime
p607
I11676
ssasVeid
p608
I51
sVtile_size
p609
I128
sVbackend
p610
Vtile
p611
s.