(dp0
Vlea
p1
I00
sVcommands
p2
(lp3
Vrm bld/gcc/*.{out,o,d}
p4
aVfind ext/libdnn -name '*.a' -or -name '*.o' | xargs rm
p5
aVmake -j4 bld/gcc/all TARGET=okg BACKEND=tile TRIALS=11 MAT_BUF_SIZE=0x240 LAYER_BUF_SIZE=0x2000 TILE_SIZE=128
p6
asVtarget
p7
Vokg
p8
sVdma
p9
I0
sS'mem'
p10
S':020000040003F7\n:10A00000CCFFCDFF3500D2FF3500DCFFD5FFD4FFFC\n:10A01000E9FF3700D7FF2C002600D5FFCAFF1A0042\n:10A0200030002700D6FF3400E5FF32002A00D5FFBC\n:10A03000DDFFE2FFCBFF2500D3FF30002600E5FF68\n:00000001FF\n'
p11
sS'trials'
p12
(lp13
(dp14
Voverall
p15
(dp16
Voverflow
p17
I12
sVtime
p18
I15828
ssVcharge
p19
(dp20
Voverflow
p21
I0
sVcycles
p22
I8
ssVsections
p23
(lp24
(dp25
Voff
p26
(dp27
Voverflow
p28
I4
sVtime
p29
I1954
ssVcharge
p30
(dp31
Voverflow
p32
I0
sVcycles
p33
I5
ssVoverall
p34
(dp35
Voverflow
p36
I8
sVtime
p37
I23327
ssa(dp38
Voff
p39
(dp40
Voverflow
p41
I2
sVtime
p42
I14574
ssVcharge
p43
(dp44
Voverflow
p45
I0
sVcycles
p46
I3
ssVoverall
p47
(dp48
Voverflow
p49
I4
sVtime
p50
I-8113
ssasVoff
p51
(dp52
Voverflow
p53
I6
sVtime
p54
I16528
ssa(dp55
Voverall
p56
(dp57
Voverflow
p58
I17
sVtime
p59
I13322
ssVcharge
p60
(dp61
Voverflow
p62
I0
sVcycles
p63
I14
ssVsections
p64
(lp65
(dp66
Voff
p67
(dp68
Voverflow
p69
I9
sVtime
p70
I-772
ssVcharge
p71
(dp72
Voverflow
p73
I0
sVcycles
p74
I11
ssVoverall
p75
(dp76
Voverflow
p77
I14
sVtime
p78
I-12189
ssa(dp79
Voff
p80
(dp81
Voverflow
p82
I3
sVtime
p83
I-17916
ssVcharge
p84
(dp85
Voverflow
p86
I0
sVcycles
p87
I3
ssVoverall
p88
(dp89
Voverflow
p90
I3
sVtime
p91
I24899
ssasVoff
p92
(dp93
Voverflow
p94
I12
sVtime
p95
I-18688
ssa(dp96
Voverall
p97
(dp98
Voverflow
p99
I18
sVtime
p100
I-18396
ssVcharge
p101
(dp102
Voverflow
p103
I0
sVcycles
p104
I14
ssVsections
p105
(lp106
(dp107
Voff
p108
(dp109
Voverflow
p110
I9
sVtime
p111
I291
ssVcharge
p112
(dp113
Voverflow
p114
I0
sVcycles
p115
I11
ssVoverall
p116
(dp117
Voverflow
p118
I14
sVtime
p119
I-11071
ssa(dp120
Voff
p121
(dp122
Voverflow
p123
I2
sVtime
p124
I14787
ssVcharge
p125
(dp126
Voverflow
p127
I0
sVcycles
p128
I3
ssVoverall
p129
(dp130
Voverflow
p131
I4
sVtime
p132
I-7939
ssasVoff
p133
(dp134
Voverflow
p135
I11
sVtime
p136
I15078
ssa(dp137
Voverall
p138
(dp139
Voverflow
p140
I17
sVtime
p141
I13954
ssVcharge
p142
(dp143
Voverflow
p144
I0
sVcycles
p145
I14
ssVsections
p146
(lp147
(dp148
Voff
p149
(dp150
Voverflow
p151
I9
sVtime
p152
I154
ssVcharge
p153
(dp154
Voverflow
p155
I0
sVcycles
p156
I11
ssVoverall
p157
(dp158
Voverflow
p159
I14
sVtime
p160
I-11243
ssa(dp161
Voff
p162
(dp163
Voverflow
p164
I2
sVtime
p165
I14568
ssVcharge
p166
(dp167
Voverflow
p168
I0
sVcycles
p169
I3
ssVoverall
p170
(dp171
Voverflow
p172
I3
sVtime
p173
I24585
ssasVoff
p174
(dp175
Voverflow
p176
I11
sVtime
p177
I14722
ssa(dp178
Voverall
p179
(dp180
Voverflow
p181
I18
sVtime
p182
I-18606
ssVcharge
p183
(dp184
Voverflow
p185
I0
sVcycles
p186
I14
ssVsections
p187
(lp188
(dp189
Voff
p190
(dp191
Voverflow
p192
I9
sVtime
p193
I-107
ssVcharge
p194
(dp195
Voverflow
p196
I0
sVcycles
p197
I11
ssVoverall
p198
(dp199
Voverflow
p200
I14
sVtime
p201
I-11480
ssa(dp202
Voff
p203
(dp204
Voverflow
p205
I3
sVtime
p206
I-17746
ssVcharge
p207
(dp208
Voverflow
p209
I0
sVcycles
p210
I3
ssVoverall
p211
(dp212
Voverflow
p213
I4
sVtime
p214
I-7739
ssasVoff
p215
(dp216
Voverflow
p217
I12
sVtime
p218
I-17853
ssa(dp219
Voverall
p220
(dp221
Voverflow
p222
I17
sVtime
p223
I14085
ssVcharge
p224
(dp225
Voverflow
p226
I0
sVcycles
p227
I14
ssVsections
p228
(lp229
(dp230
Voff
p231
(dp232
Voverflow
p233
I9
sVtime
p234
I-83
ssVcharge
p235
(dp236
Voverflow
p237
I0
sVcycles
p238
I11
ssVoverall
p239
(dp240
Voverflow
p241
I13
sVtime
p242
I21302
ssa(dp243
Voff
p244
(dp245
Voverflow
p246
I2
sVtime
p247
I14898
ssVcharge
p248
(dp249
Voverflow
p250
I0
sVcycles
p251
I3
ssVoverall
p252
(dp253
Voverflow
p254
I4
sVtime
p255
I-7828
ssasVoff
p256
(dp257
Voverflow
p258
I11
sVtime
p259
I14815
ssa(dp260
Voverall
p261
(dp262
Voverflow
p263
I18
sVtime
p264
I-18704
ssVcharge
p265
(dp266
Voverflow
p267
I0
sVcycles
p268
I14
ssVsections
p269
(lp270
(dp271
Voff
p272
(dp273
Voverflow
p274
I9
sVtime
p275
I127
ssVcharge
p276
(dp277
Voverflow
p278
I0
sVcycles
p279
I11
ssVoverall
p280
(dp281
Voverflow
p282
I14
sVtime
p283
I-11211
ssa(dp284
Voff
p285
(dp286
Voverflow
p287
I3
sVtime
p288
I-18149
ssVcharge
p289
(dp290
Voverflow
p291
I0
sVcycles
p292
I3
ssVoverall
p293
(dp294
Voverflow
p295
I4
sVtime
p296
I-8106
ssasVoff
p297
(dp298
Voverflow
p299
I12
sVtime
p300
I-18022
ssa(dp301
Voverall
p302
(dp303
Voverflow
p304
I17
sVtime
p305
I14699
ssVcharge
p306
(dp307
Voverflow
p308
I0
sVcycles
p309
I14
ssVsections
p310
(lp311
(dp312
Voff
p313
(dp314
Voverflow
p315
I9
sVtime
p316
I423
ssVcharge
p317
(dp318
Voverflow
p319
I0
sVcycles
p320
I11
ssVoverall
p321
(dp322
Voverflow
p323
I13
sVtime
p324
I21817
ssa(dp325
Voff
p326
(dp327
Voverflow
p328
I2
sVtime
p329
I14999
ssVcharge
p330
(dp331
Voverflow
p332
I0
sVcycles
p333
I3
ssVoverall
p334
(dp335
Voverflow
p336
I4
sVtime
p337
I-7729
ssasVoff
p338
(dp339
Voverflow
p340
I11
sVtime
p341
I15422
ssa(dp342
Voverall
p343
(dp344
Voverflow
p345
I18
sVtime
p346
I-18216
ssVcharge
p347
(dp348
Voverflow
p349
I0
sVcycles
p350
I14
ssVsections
p351
(lp352
(dp353
Voff
p354
(dp355
Voverflow
p356
I8
sVtime
p357
I6304
ssVcharge
p358
(dp359
Voverflow
p360
I0
sVcycles
p361
I10
ssVoverall
p362
(dp363
Voverflow
p364
I13
sVtime
p365
I-5043
ssa(dp366
Voff
p367
(dp368
Voverflow
p369
I3
sVtime
p370
I-18100
ssVcharge
p371
(dp372
Voverflow
p373
I0
sVcycles
p374
I3
ssVoverall
p375
(dp376
Voverflow
p377
I4
sVtime
p378
I-8047
ssasVoff
p379
(dp380
Voverflow
p381
I12
sVtime
p382
I-17559
ssa(dp383
Voverall
p384
(dp385
Voverflow
p386
I17
sVtime
p387
I14029
ssVcharge
p388
(dp389
Voverflow
p390
I0
sVcycles
p391
I14
ssVsections
p392
(lp393
(dp394
Voff
p395
(dp396
Voverflow
p397
I8
sVtime
p398
I5754
ssVcharge
p399
(dp400
Voverflow
p401
I0
sVcycles
p402
I10
ssVoverall
p403
(dp404
Voverflow
p405
I12
sVtime
p406
I27170
ssa(dp407
Voff
p408
(dp409
Voverflow
p410
I3
sVtime
p411
I8975
ssVcharge
p412
(dp413
Voverflow
p414
I0
sVcycles
p415
I4
ssVoverall
p416
(dp417
Voverflow
p418
I5
sVtime
p419
I-13753
ssasVoff
p420
(dp421
Voverflow
p422
I11
sVtime
p423
I14729
ssa(dp424
Voverall
p425
(dp426
Voverflow
p427
I17
sVtime
p428
I-12396
ssVcharge
p429
(dp430
Voverflow
p431
I0
sVcycles
p432
I13
ssVsections
p433
(lp434
(dp435
Voff
p436
(dp437
Voverflow
p438
I8
sVtime
p439
I6062
ssVcharge
p440
(dp441
Voverflow
p442
I0
sVcycles
p443
I10
ssVoverall
p444
(dp445
Voverflow
p446
I13
sVtime
p447
I-5305
ssa(dp448
Voff
p449
(dp450
Voverflow
p451
I3
sVtime
p452
I-17727
ssVcharge
p453
(dp454
Voverflow
p455
I0
sVcycles
p456
I3
ssVoverall
p457
(dp458
Voverflow
p459
I4
sVtime
p460
I-7705
ssasVoff
p461
(dp462
Voverflow
p463
I11
sVtime
p464
I-11665
ssasVeid
p465
I54
sVtile_size
p466
I128
sVbackend
p467
Vtile
p468
s.