(dp0
Vlea
p1
I00
sVcommands
p2
(lp3
Vrm bld/gcc/*.{out,o,d}
p4
aVfind ext/libdnn -name '*.a' -or -name '*.o' | xargs rm
p5
aVmake -j4 bld/gcc/all TARGET=har BACKEND=flex TRIALS=11 MAT_BUF_SIZE=0x310 LAYER_BUF_SIZE=0x3000
p6
asVtarget
p7
Vhar
p8
sVdma
p9
I0
sS'mem'
p10
S':020000040003F7\n:10A00000010001000000010001000000010001004A\n:10A01000000001000100000001000100000001003B\n:10A02000010000000100010000000100010000002B\n:10A03000010001000000010001000000010001001A\n:00000001FF\n'
p11
sS'trials'
p12
(lp13
(dp14
Voverall
p15
(dp16
Voverflow
p17
I1
sVtime
p18
I21767
ssVcharge
p19
(dp20
Voverflow
p21
I0
sVcycles
p22
I585
ssVsections
p23
(lp24
(dp25
Voff
p26
(dp27
Voverflow
p28
I1
sVtime
p29
I-7635
ssVcharge
p30
(dp31
Voverflow
p32
I0
sVcycles
p33
I524
ssVoverall
p34
(dp35
Voverflow
p36
I1
sVtime
p37
I16133
ssa(dp38
Voff
p39
(dp40
Voverflow
p41
I0
sVtime
p42
I2286
ssVcharge
p43
(dp44
Voverflow
p45
I0
sVcycles
p46
I48
ssVoverall
p47
(dp48
Voverflow
p49
I0
sVtime
p50
I4310
ssasVoff
p51
(dp52
Voverflow
p53
I1
sVtime
p54
I-4187
ssa(dp55
Voverall
p56
(dp57
Voverflow
p58
I2
sVtime
p59
I-11834
ssVcharge
p60
(dp61
Voverflow
p62
I0
sVcycles
p63
I556
ssVsections
p64
(lp65
(dp66
Voff
p67
(dp68
Voverflow
p69
I1
sVtime
p70
I-8422
ssVcharge
p71
(dp72
Voverflow
p73
I0
sVcycles
p74
I497
ssVoverall
p75
(dp76
Voverflow
p77
I2
sVtime
p78
I-17455
ssa(dp79
Voff
p80
(dp81
Voverflow
p82
I0
sVtime
p83
I2273
ssVcharge
p84
(dp85
Voverflow
p86
I0
sVcycles
p87
I47
ssVoverall
p88
(dp89
Voverflow
p90
I0
sVtime
p91
I4294
ssasVoff
p92
(dp93
Voverflow
p94
I1
sVtime
p95
I-5558
ssa(dp96
Voverall
p97
(dp98
Voverflow
p99
I2
sVtime
p100
I-11685
ssVcharge
p101
(dp102
Voverflow
p103
I0
sVcycles
p104
I561
ssVsections
p105
(lp106
(dp107
Voff
p108
(dp109
Voverflow
p110
I0
sVtime
p111
I24330
ssVcharge
p112
(dp113
Voverflow
p114
I0
sVcycles
p115
I500
ssVoverall
p116
(dp117
Voverflow
p118
I1
sVtime
p119
I15355
ssa(dp120
Voff
p121
(dp122
Voverflow
p123
I0
sVtime
p124
I2352
ssVcharge
p125
(dp126
Voverflow
p127
I0
sVcycles
p128
I49
ssVoverall
p129
(dp130
Voverflow
p131
I1
sVtime
p132
I-28292
ssasVoff
p133
(dp134
Voverflow
p135
I0
sVtime
p136
I27260
ssa(dp137
Voverall
p138
(dp139
Voverflow
p140
I1
sVtime
p141
I20936
ssVcharge
p142
(dp143
Voverflow
p144
I0
sVcycles
p145
I553
ssVsections
p146
(lp147
(dp148
Voff
p149
(dp150
Voverflow
p151
I1
sVtime
p152
I-8474
ssVcharge
p153
(dp154
Voverflow
p155
I0
sVcycles
p156
I494
ssVoverall
p157
(dp158
Voverflow
p159
I1
sVtime
p160
I15261
ssa(dp161
Voff
p162
(dp163
Voverflow
p164
I0
sVtime
p165
I2275
ssVcharge
p166
(dp167
Voverflow
p168
I0
sVcycles
p169
I47
ssVoverall
p170
(dp171
Voverflow
p172
I0
sVtime
p173
I4438
ssasVoff
p174
(dp175
Voverflow
p176
I1
sVtime
p177
I-5628
ssa(dp178
Voverall
p179
(dp180
Voverflow
p181
I2
sVtime
p182
I-12193
ssVcharge
p183
(dp184
Voverflow
p185
I0
sVcycles
p186
I542
ssVsections
p187
(lp188
(dp189
Voff
p190
(dp191
Voverflow
p192
I1
sVtime
p193
I-8866
ssVcharge
p194
(dp195
Voverflow
p196
I0
sVcycles
p197
I483
ssVoverall
p198
(dp199
Voverflow
p200
I2
sVtime
p201
I-18005
ssa(dp202
Voff
p203
(dp204
Voverflow
p205
I0
sVtime
p206
I2233
ssVcharge
p207
(dp208
Voverflow
p209
I0
sVcycles
p210
I47
ssVoverall
p211
(dp212
Voverflow
p213
I0
sVtime
p214
I4390
ssasVoff
p215
(dp216
Voverflow
p217
I1
sVtime
p218
I-6062
ssa(dp219
Voverall
p220
(dp221
Voverflow
p222
I1
sVtime
p223
I21112
ssVcharge
p224
(dp225
Voverflow
p226
I0
sVcycles
p227
I565
ssVsections
p228
(lp229
(dp230
Voff
p231
(dp232
Voverflow
p233
I1
sVtime
p234
I-8361
ssVcharge
p235
(dp236
Voverflow
p237
I0
sVcycles
p238
I500
ssVoverall
p239
(dp240
Voverflow
p241
I1
sVtime
p242
I15293
ssa(dp243
Voff
p244
(dp245
Voverflow
p246
I0
sVtime
p247
I2496
ssVcharge
p248
(dp249
Voverflow
p250
I0
sVcycles
p251
I53
ssVoverall
p252
(dp253
Voverflow
p254
I0
sVtime
p255
I4554
ssasVoff
p256
(dp257
Voverflow
p258
I1
sVtime
p259
I-5257
ssa(dp260
Voverall
p261
(dp262
Voverflow
p263
I2
sVtime
p264
I-10497
ssVcharge
p265
(dp266
Voverflow
p267
I1
sVcycles
p268
I-32178
ssVsections
p269
(lp270
(dp271
Voff
p272
(dp273
Voverflow
p274
I1
sVtime
p275
I-7321
ssVcharge
p276
(dp277
Voverflow
p278
I1
sVcycles
p279
I-32240
ssVoverall
p280
(dp281
Voverflow
p282
I1
sVtime
p283
I16493
ssa(dp284
Voff
p285
(dp286
Voverflow
p287
I0
sVtime
p288
I2377
ssVcharge
p289
(dp290
Voverflow
p291
I0
sVcycles
p292
I50
ssVoverall
p293
(dp294
Voverflow
p295
I0
sVtime
p296
I4516
ssasVoff
p297
(dp298
Voverflow
p299
I1
sVtime
p300
I-4355
ssa(dp301
Voverall
p302
(dp303
Voverflow
p304
I2
sVtime
p305
I-9631
ssVcharge
p306
(dp307
Voverflow
p308
I0
sVcycles
p309
I614
ssVsections
p310
(lp311
(dp312
Voff
p313
(dp314
Voverflow
p315
I1
sVtime
p316
I-6403
ssVcharge
p317
(dp318
Voverflow
p319
I0
sVcycles
p320
I549
ssVoverall
p321
(dp322
Voverflow
p323
I2
sVtime
p324
I-15372
ssa(dp325
Voff
p326
(dp327
Voverflow
p328
I0
sVtime
p329
I2434
ssVcharge
p330
(dp331
Voverflow
p332
I0
sVcycles
p333
I53
ssVoverall
p334
(dp335
Voverflow
p336
I0
sVtime
p337
I4550
ssasVoff
p338
(dp339
Voverflow
p340
I1
sVtime
p341
I-3373
ssa(dp342
Voverall
p343
(dp344
Voverflow
p345
I2
sVtime
p346
I-12209
ssVcharge
p347
(dp348
Voverflow
p349
I0
sVcycles
p350
I542
ssVsections
p351
(lp352
(dp353
Voff
p354
(dp355
Voverflow
p356
I0
sVtime
p357
I23847
ssVcharge
p358
(dp359
Voverflow
p360
I0
sVcycles
p361
I481
ssVoverall
p362
(dp363
Voverflow
p364
I1
sVtime
p365
I14788
ssa(dp366
Voff
p367
(dp368
Voverflow
p369
I1
sVtime
p370
I-30397
ssVcharge
p371
(dp372
Voverflow
p373
I0
sVcycles
p374
I49
ssVoverall
p375
(dp376
Voverflow
p377
I1
sVtime
p378
I-28279
ssasVoff
p379
(dp380
Voverflow
p381
I1
sVtime
p382
I-5972
ssa(dp383
Voverall
p384
(dp385
Voverflow
p386
I1
sVtime
p387
I22169
ssVcharge
p388
(dp389
Voverflow
p390
I0
sVcycles
p391
I593
ssVsections
p392
(lp393
(dp394
Voff
p395
(dp396
Voverflow
p397
I0
sVtime
p398
I25508
ssVcharge
p399
(dp400
Voverflow
p401
I0
sVcycles
p402
I530
ssVoverall
p403
(dp404
Voverflow
p405
I1
sVtime
p406
I16448
ssa(dp407
Voff
p408
(dp409
Voverflow
p410
I0
sVtime
p411
I2394
ssVcharge
p412
(dp413
Voverflow
p414
I0
sVcycles
p415
I51
ssVoverall
p416
(dp417
Voverflow
p418
I0
sVtime
p419
I4514
ssasVoff
p420
(dp421
Voverflow
p422
I0
sVtime
p423
I28479
ssa(dp424
Voverall
p425
(dp426
Voverflow
p427
I2
sVtime
p428
I-10677
ssVcharge
p429
(dp430
Voverflow
p431
I0
sVcycles
p432
I590
ssVsections
p433
(lp434
(dp435
Voff
p436
(dp437
Voverflow
p438
I1
sVtime
p439
I-7226
ssVcharge
p440
(dp441
Voverflow
p442
I0
sVcycles
p443
I531
ssVoverall
p444
(dp445
Voverflow
p446
I2
sVtime
p447
I-16333
ssa(dp448
Voff
p449
(dp450
Voverflow
p451
I0
sVtime
p452
I2304
ssVcharge
p453
(dp454
Voverflow
p455
I0
sVcycles
p456
I47
ssVoverall
p457
(dp458
Voverflow
p459
I0
sVtime
p460
I4397
ssasVoff
p461
(dp462
Voverflow
p463
I1
sVtime
p464
I-4330
ssasVeid
p465
I13
sVtile_size
p466
I0
sVbackend
p467
Vflex
p468
s.