(dp0
Vlea
p1
I00
sVcommands
p2
(lp3
Vrm bld/gcc/*.{out,o,d}
p4
aVfind ext/libdnn -name '*.a' -or -name '*.o' | xargs rm
p5
aVmake -j4 bld/gcc/all TARGET=har BACKEND=tile TRIALS=11 MAT_BUF_SIZE=0x310 LAYER_BUF_SIZE=0x3000 TILE_SIZE=32
p6
asVtarget
p7
Vhar
p8
sVdma
p9
I0
sS'mem'
p10
S':020000040003F7\n:10A00000010001000000010001000000010001004A\n:10A01000000001000100000001000100000001003B\n:10A02000010000000100010000000100010000002B\n:10A03000010001000000010001000000010001001A\n:00000001FF\n'
p11
sS'trials'
p12
(lp13
(dp14
Voverall
p15
(dp16
Voverflow
p17
I20
sVtime
p18
I-15152
ssVcharge
p19
(dp20
Voverflow
p21
I0
sVcycles
p22
I7269
ssVsections
p23
(lp24
(dp25
Voff
p26
(dp27
Voverflow
p28
I4
sVtime
p29
I-5683
ssVcharge
p30
(dp31
Voverflow
p32
I0
sVcycles
p33
I2675
ssVoverall
p34
(dp35
Voverflow
p36
I7
sVtime
p37
I4924
ssa(dp38
Voff
p39
(dp40
Voverflow
p41
I6
sVtime
p42
I14116
ssVcharge
p43
(dp44
Voverflow
p45
I0
sVcycles
p46
I4427
ssVoverall
p47
(dp48
Voverflow
p49
I12
sVtime
p50
I-2289
ssasVoff
p51
(dp52
Voverflow
p53
I10
sVtime
p54
I16292
ssa(dp55
Voverall
p56
(dp57
Voverflow
p58
I19
sVtime
p59
I25095
ssVcharge
p60
(dp61
Voverflow
p62
I1
sVcycles
p63
I-25426
ssVsections
p64
(lp65
(dp66
Voff
p67
(dp68
Voverflow
p69
I4
sVtime
p70
I-6868
ssVcharge
p71
(dp72
Voverflow
p73
I0
sVcycles
p74
I2635
ssVoverall
p75
(dp76
Voverflow
p77
I7
sVtime
p78
I2832
ssa(dp79
Voff
p80
(dp81
Voverflow
p82
I8
sVtime
p83
I-9731
ssVcharge
p84
(dp85
Voverflow
p86
I1
sVcycles
p87
I-28231
ssVoverall
p88
(dp89
Voverflow
p90
I12
sVtime
p91
I7232
ssasVoff
p92
(dp93
Voverflow
p94
I12
sVtime
p95
I-8704
ssa(dp96
Voverall
p97
(dp98
Voverflow
p99
I20
sVtime
p100
I-4960
ssVcharge
p101
(dp102
Voverflow
p103
I0
sVcycles
p104
I7359
ssVsections
p105
(lp106
(dp107
Voff
p108
(dp109
Voverflow
p110
I5
sVtime
p111
I-10421
ssVcharge
p112
(dp113
Voverflow
p114
I0
sVcycles
p115
I2514
ssVoverall
p116
(dp117
Voverflow
p118
I7
sVtime
p119
I-616
ssa(dp120
Voff
p121
(dp122
Voverflow
p123
I8
sVtime
p124
I-1906
ssVcharge
p125
(dp126
Voverflow
p127
I0
sVcycles
p128
I4679
ssVoverall
p129
(dp130
Voverflow
p131
I12
sVtime
p132
I13821
ssasVoff
p133
(dp134
Voverflow
p135
I13
sVtime
p136
I-4589
ssa(dp137
Voverall
p138
(dp139
Voverflow
p140
I21
sVtime
p141
I-5390
ssVcharge
p142
(dp143
Voverflow
p144
I0
sVcycles
p145
I7658
ssVsections
p146
(lp147
(dp148
Voff
p149
(dp150
Voverflow
p151
I5
sVtime
p152
I9415
ssVcharge
p153
(dp154
Voverflow
p155
I0
sVcycles
p156
I2745
ssVoverall
p157
(dp158
Voverflow
p159
I8
sVtime
p160
I-15164
ssa(dp161
Voff
p162
(dp163
Voverflow
p164
I7
sVtime
p165
I9308
ssVcharge
p166
(dp167
Voverflow
p168
I0
sVcycles
p169
I4740
ssVoverall
p170
(dp171
Voverflow
p172
I13
sVtime
p173
I-5668
ssasVoff
p174
(dp175
Voverflow
p176
I13
sVtime
p177
I-5466
ssa(dp178
Voverall
p179
(dp180
Voverflow
p181
I20
sVtime
p182
I-6299
ssVcharge
p183
(dp184
Voverflow
p185
I0
sVcycles
p186
I7335
ssVsections
p187
(lp188
(dp189
Voff
p190
(dp191
Voverflow
p192
I4
sVtime
p193
I2009
ssVcharge
p194
(dp195
Voverflow
p196
I0
sVcycles
p197
I2774
ssVoverall
p198
(dp199
Voverflow
p200
I7
sVtime
p201
I11446
ssa(dp202
Voff
p203
(dp204
Voverflow
p205
I7
sVtime
p206
I-18284
ssVcharge
p207
(dp208
Voverflow
p209
I0
sVcycles
p210
I4391
ssVoverall
p211
(dp212
Voverflow
p213
I12
sVtime
p214
I-105
ssasVoff
p215
(dp216
Voverflow
p217
I11
sVtime
p218
I-8071
ssa(dp219
Voverall
p220
(dp221
Voverflow
p222
I19
sVtime
p223
I9575
ssVcharge
p224
(dp225
Voverflow
p226
I0
sVcycles
p227
I7012
ssVsections
p228
(lp229
(dp230
Voff
p231
(dp232
Voverflow
p233
I4
sVtime
p234
I447
ssVcharge
p235
(dp236
Voverflow
p237
I0
sVcycles
p238
I2702
ssVoverall
p239
(dp240
Voverflow
p241
I7
sVtime
p242
I9290
ssa(dp243
Voff
p244
(dp245
Voverflow
p246
I6
sVtime
p247
I1500
ssVcharge
p248
(dp249
Voverflow
p250
I0
sVcycles
p251
I4159
ssVoverall
p252
(dp253
Voverflow
p254
I11
sVtime
p255
I18402
ssasVoff
p256
(dp257
Voverflow
p258
I10
sVtime
p259
I9124
ssa(dp260
Voverall
p261
(dp262
Voverflow
p263
I21
sVtime
p264
I-23570
ssVcharge
p265
(dp266
Voverflow
p267
I1
sVcycles
p268
I-25473
ssVsections
p269
(lp270
(dp271
Voff
p272
(dp273
Voverflow
p274
I4
sVtime
p275
I17904
ssVcharge
p276
(dp277
Voverflow
p278
I0
sVcycles
p279
I2417
ssVoverall
p280
(dp281
Voverflow
p282
I7
sVtime
p283
I-1848
ssa(dp284
Voff
p285
(dp286
Voverflow
p287
I8
sVtime
p288
I12530
ssVcharge
p289
(dp290
Voverflow
p291
I1
sVcycles
p292
I-28046
ssVoverall
p293
(dp294
Voverflow
p295
I13
sVtime
p296
I-3806
ssasVoff
p297
(dp298
Voverflow
p299
I13
sVtime
p300
I5288
ssa(dp301
Voverall
p302
(dp303
Voverflow
p304
I21
sVtime
p305
I9222
ssVcharge
p306
(dp307
Voverflow
p308
I0
sVcycles
p309
I7791
ssVsections
p310
(lp311
(dp312
Voff
p313
(dp314
Voverflow
p315
I4
sVtime
p316
I10708
ssVcharge
p317
(dp318
Voverflow
p319
I0
sVcycles
p320
I2774
ssVoverall
p321
(dp322
Voverflow
p323
I7
sVtime
p324
I18522
ssa(dp325
Voff
p326
(dp327
Voverflow
p328
I7
sVtime
p329
I21826
ssVcharge
p330
(dp331
Voverflow
p332
I0
sVcycles
p333
I4838
ssVoverall
p334
(dp335
Voverflow
p336
I13
sVtime
p337
I7135
ssasVoff
p338
(dp339
Voverflow
p340
I12
sVtime
p341
I9204
ssa(dp342
Voverall
p343
(dp344
Voverflow
p345
I21
sVtime
p346
I12704
ssVcharge
p347
(dp348
Voverflow
p349
I0
sVcycles
p350
I7814
ssVsections
p351
(lp352
(dp353
Voff
p354
(dp355
Voverflow
p356
I6
sVtime
p357
I-20692
ssVcharge
p358
(dp359
Voverflow
p360
I0
sVcycles
p361
I2779
ssVoverall
p362
(dp363
Voverflow
p364
I7
sVtime
p365
I19483
ssa(dp366
Voff
p367
(dp368
Voverflow
p369
I8
sVtime
p370
I-8588
ssVcharge
p371
(dp372
Voverflow
p373
I0
sVcycles
p374
I4860
ssVoverall
p375
(dp376
Voverflow
p377
I13
sVtime
p378
I10108
ssasVoff
p379
(dp380
Voverflow
p381
I14
sVtime
p382
I-20228
ssa(dp383
Voverall
p384
(dp385
Voverflow
p386
I22
sVtime
p387
I-17766
ssVcharge
p388
(dp389
Voverflow
p390
I0
sVcycles
p391
I7834
ssVsections
p392
(lp393
(dp394
Voff
p395
(dp396
Voverflow
p397
I4
sVtime
p398
I12450
ssVcharge
p399
(dp400
Voverflow
p401
I0
sVcycles
p402
I2782
ssVoverall
p403
(dp404
Voverflow
p405
I8
sVtime
p406
I-12870
ssa(dp407
Voff
p408
(dp409
Voverflow
p410
I9
sVtime
p411
I-7088
ssVcharge
p412
(dp413
Voverflow
p414
I0
sVcycles
p415
I4878
ssVoverall
p416
(dp417
Voverflow
p418
I14
sVtime
p419
I-20659
ssasVoff
p420
(dp421
Voverflow
p422
I13
sVtime
p423
I14423
ssa(dp424
Voverall
p425
(dp426
Voverflow
p427
I21
sVtime
p428
I16677
ssVcharge
p429
(dp430
Voverflow
p431
I1
sVcycles
p432
I-24920
ssVsections
p433
(lp434
(dp435
Voff
p436
(dp437
Voverflow
p438
I5
sVtime
p439
I-20339
ssVcharge
p440
(dp441
Voverflow
p442
I0
sVcycles
p443
I2782
ssVoverall
p444
(dp445
Voverflow
p446
I7
sVtime
p447
I19946
ssa(dp448
Voff
p449
(dp450
Voverflow
p451
I8
sVtime
p452
I-5960
ssVcharge
p453
(dp454
Voverflow
p455
I1
sVcycles
p456
I-27877
ssVoverall
p457
(dp458
Voverflow
p459
I13
sVtime
p460
I13523
ssasVoff
p461
(dp462
Voverflow
p463
I13
sVtime
p464
I-17206
ssasVeid
p465
I15
sVtile_size
p466
I32
sVbackend
p467
Vtile
p468
s.