(dp0
Vlea
p1
I00
sVcommands
p2
(lp3
Vrm bld/gcc/*.{out,o,d}
p4
aVfind ext/libdnn -name '*.a' -or -name '*.o' | xargs rm
p5
aVfind ext/libdsp -name '*.a' -or -name '*.o' | xargs rm
p6
aVmake -j4 bld/gcc/all TARGET=har BACKEND=lea TRIALS=11 MAT_BUF_SIZE=0x310 LAYER_BUF_SIZE=0x3000 TILE_SIZE=256 DISABLE_LEA=1
p7
asVtarget
p8
Vhar
p9
sVdma
p10
I2
sS'mem'
p11
S':020000040003F7\n:10A00000010001000000010001000000010001004A\n:10A01000000001000100000001000100000001003B\n:10A02000010000000100010000000100010000002B\n:10A03000010001000000010001000000010001001A\n:00000001FF\n'
p12
sS'trials'
p13
(lp14
(dp15
Voverall
p16
(dp17
Voverflow
p18
I1
sVtime
p19
I11235
ssVcharge
p20
(dp21
Voverflow
p22
I0
sVcycles
p23
I495
ssVsections
p24
(lp25
(dp26
Voff
p27
(dp28
Voverflow
p29
I1
sVtime
p30
I-10121
ssVcharge
p31
(dp32
Voverflow
p33
I0
sVcycles
p34
I441
ssVoverall
p35
(dp36
Voverflow
p37
I1
sVtime
p38
I6286
ssa(dp39
Voff
p40
(dp41
Voverflow
p42
I0
sVtime
p43
I2241
ssVcharge
p44
(dp45
Voverflow
p46
I0
sVcycles
p47
I42
ssVoverall
p48
(dp49
Voverflow
p50
I0
sVtime
p51
I3704
ssasVoff
p52
(dp53
Voverflow
p54
I1
sVtime
p55
I-7234
ssa(dp56
Voverall
p57
(dp58
Voverflow
p59
I2
sVtime
p60
I-21303
ssVcharge
p61
(dp62
Voverflow
p63
I0
sVcycles
p64
I498
ssVsections
p65
(lp66
(dp67
Voff
p68
(dp69
Voverflow
p70
I0
sVtime
p71
I22799
ssVcharge
p72
(dp73
Voverflow
p74
I0
sVcycles
p75
I444
ssVoverall
p76
(dp77
Voverflow
p78
I2
sVtime
p79
I-26290
ssa(dp80
Voff
p81
(dp82
Voverflow
p83
I0
sVtime
p84
I2282
ssVcharge
p85
(dp86
Voverflow
p87
I0
sVcycles
p88
I42
ssVoverall
p89
(dp90
Voverflow
p91
I0
sVtime
p92
I3743
ssasVoff
p93
(dp94
Voverflow
p95
I0
sVtime
p96
I25735
ssa(dp97
Voverall
p98
(dp99
Voverflow
p100
I1
sVtime
p101
I11358
ssVcharge
p102
(dp103
Voverflow
p104
I0
sVcycles
p105
I496
ssVsections
p106
(lp107
(dp108
Voff
p109
(dp110
Voverflow
p111
I1
sVtime
p112
I-10078
ssVcharge
p113
(dp114
Voverflow
p115
I0
sVcycles
p116
I442
ssVoverall
p117
(dp118
Voverflow
p119
I1
sVtime
p120
I6300
ssa(dp121
Voff
p122
(dp123
Voverflow
p124
I0
sVtime
p125
I2202
ssVcharge
p126
(dp127
Voverflow
p128
I0
sVcycles
p129
I42
ssVoverall
p130
(dp131
Voverflow
p132
I0
sVtime
p133
I3665
ssasVoff
p134
(dp135
Voverflow
p136
I1
sVtime
p137
I-7228
ssa(dp138
Voverall
p139
(dp140
Voverflow
p141
I2
sVtime
p142
I-21058
ssVcharge
p143
(dp144
Voverflow
p145
I0
sVcycles
p146
I501
ssVsections
p147
(lp148
(dp149
Voff
p150
(dp151
Voverflow
p152
I1
sVtime
p153
I-9820
ssVcharge
p154
(dp155
Voverflow
p156
I0
sVcycles
p157
I447
ssVoverall
p158
(dp159
Voverflow
p160
I1
sVtime
p161
I6738
ssa(dp162
Voff
p163
(dp164
Voverflow
p165
I0
sVtime
p166
I2264
ssVcharge
p167
(dp168
Voverflow
p169
I0
sVcycles
p170
I42
ssVoverall
p171
(dp172
Voverflow
p173
I1
sVtime
p174
I-29045
ssasVoff
p175
(dp176
Voverflow
p177
I1
sVtime
p178
I-6902
ssa(dp179
Voverall
p180
(dp181
Voverflow
p182
I1
sVtime
p183
I11725
ssVcharge
p184
(dp185
Voverflow
p186
I0
sVcycles
p187
I500
ssVsections
p188
(lp189
(dp190
Voff
p191
(dp192
Voverflow
p193
I1
sVtime
p194
I-9840
ssVcharge
p195
(dp196
Voverflow
p197
I0
sVcycles
p198
I446
ssVoverall
p199
(dp200
Voverflow
p201
I1
sVtime
p202
I6695
ssa(dp203
Voff
p204
(dp205
Voverflow
p206
I0
sVtime
p207
I2240
ssVcharge
p208
(dp209
Voverflow
p210
I0
sVcycles
p211
I42
ssVoverall
p212
(dp213
Voverflow
p214
I0
sVtime
p215
I3698
ssasVoff
p216
(dp217
Voverflow
p218
I1
sVtime
p219
I-6940
ssa(dp220
Voverall
p221
(dp222
Voverflow
p223
I1
sVtime
p224
I11700
ssVcharge
p225
(dp226
Voverflow
p227
I0
sVcycles
p228
I500
ssVsections
p229
(lp230
(dp231
Voff
p232
(dp233
Voverflow
p234
I1
sVtime
p235
I-9786
ssVcharge
p236
(dp237
Voverflow
p238
I0
sVcycles
p239
I446
ssVoverall
p240
(dp241
Voverflow
p242
I1
sVtime
p243
I6638
ssa(dp244
Voff
p245
(dp246
Voverflow
p247
I0
sVtime
p248
I2245
ssVcharge
p249
(dp250
Voverflow
p251
I0
sVcycles
p252
I42
ssVoverall
p253
(dp254
Voverflow
p255
I0
sVtime
p256
I3700
ssasVoff
p257
(dp258
Voverflow
p259
I1
sVtime
p260
I-6891
ssa(dp261
Voverall
p262
(dp263
Voverflow
p264
I2
sVtime
p265
I-20754
ssVcharge
p266
(dp267
Voverflow
p268
I0
sVcycles
p269
I504
ssVsections
p270
(lp271
(dp272
Voff
p273
(dp274
Voverflow
p275
I0
sVtime
p276
I23256
ssVcharge
p277
(dp278
Voverflow
p279
I0
sVcycles
p280
I450
ssVoverall
p281
(dp282
Voverflow
p283
I2
sVtime
p284
I-25677
ssa(dp285
Voff
p286
(dp287
Voverflow
p288
I0
sVtime
p289
I2274
ssVcharge
p290
(dp291
Voverflow
p292
I0
sVcycles
p293
I42
ssVoverall
p294
(dp295
Voverflow
p296
I0
sVtime
p297
I3727
ssasVoff
p298
(dp299
Voverflow
p300
I0
sVtime
p301
I26178
ssa(dp302
Voverall
p303
(dp304
Voverflow
p305
I1
sVtime
p306
I11792
ssVcharge
p307
(dp308
Voverflow
p309
I0
sVcycles
p310
I501
ssVsections
p311
(lp312
(dp313
Voff
p314
(dp315
Voverflow
p316
I1
sVtime
p317
I-9866
ssVcharge
p318
(dp319
Voverflow
p320
I0
sVcycles
p321
I446
ssVoverall
p322
(dp323
Voverflow
p324
I1
sVtime
p325
I6588
ssa(dp326
Voff
p327
(dp328
Voverflow
p329
I0
sVtime
p330
I2307
ssVcharge
p331
(dp332
Voverflow
p333
I0
sVcycles
p334
I43
ssVoverall
p335
(dp336
Voverflow
p337
I0
sVtime
p338
I3887
ssasVoff
p339
(dp340
Voverflow
p341
I1
sVtime
p342
I-6903
ssa(dp343
Voverall
p344
(dp345
Voverflow
p346
I1
sVtime
p347
I11852
ssVcharge
p348
(dp349
Voverflow
p350
I0
sVcycles
p351
I501
ssVsections
p352
(lp353
(dp354
Voff
p355
(dp356
Voverflow
p357
I1
sVtime
p358
I-9692
ssVcharge
p359
(dp360
Voverflow
p361
I0
sVcycles
p362
I447
ssVoverall
p363
(dp364
Voverflow
p365
I1
sVtime
p366
I6894
ssa(dp367
Voff
p368
(dp369
Voverflow
p370
I0
sVtime
p371
I2231
ssVcharge
p372
(dp373
Voverflow
p374
I0
sVcycles
p375
I42
ssVoverall
p376
(dp377
Voverflow
p378
I0
sVtime
p379
I3695
ssasVoff
p380
(dp381
Voverflow
p382
I1
sVtime
p383
I-6832
ssa(dp384
Voverall
p385
(dp386
Voverflow
p387
I2
sVtime
p388
I-21278
ssVcharge
p389
(dp390
Voverflow
p391
I0
sVcycles
p392
I499
ssVsections
p393
(lp394
(dp395
Voff
p396
(dp397
Voverflow
p398
I1
sVtime
p399
I-9937
ssVcharge
p400
(dp401
Voverflow
p402
I0
sVcycles
p403
I445
ssVoverall
p404
(dp405
Voverflow
p406
I2
sVtime
p407
I-26241
ssa(dp408
Voff
p409
(dp410
Voverflow
p411
I0
sVtime
p412
I2201
ssVcharge
p413
(dp414
Voverflow
p415
I0
sVcycles
p416
I42
ssVoverall
p417
(dp418
Voverflow
p419
I0
sVtime
p420
I3661
ssasVoff
p421
(dp422
Voverflow
p423
I1
sVtime
p424
I-7099
ssa(dp425
Voverall
p426
(dp427
Voverflow
p428
I1
sVtime
p429
I11836
ssVcharge
p430
(dp431
Voverflow
p432
I1
sVcycles
p433
I-32267
ssVsections
p434
(lp435
(dp436
Voff
p437
(dp438
Voverflow
p439
I0
sVtime
p440
I23054
ssVcharge
p441
(dp442
Voverflow
p443
I0
sVcycles
p444
I447
ssVoverall
p445
(dp446
Voverflow
p447
I1
sVtime
p448
I6806
ssa(dp449
Voff
p450
(dp451
Voverflow
p452
I0
sVtime
p453
I2235
ssVcharge
p454
(dp455
Voverflow
p456
I1
sVcycles
p457
I-32726
ssVoverall
p458
(dp459
Voverflow
p460
I0
sVtime
p461
I3707
ssasVoff
p462
(dp463
Voverflow
p464
I1
sVtime
p465
I-6828
ssasVeid
p466
I23
sVtile_size
p467
I256
sVbackend
p468
Vlea_fir
p469
s.