(dp0
Vlea
p1
I00
sVcommands
p2
(lp3
Vrm bld/gcc/*.{out,o,d}
p4
aVfind ext/libdnn -name '*.a' -or -name '*.o' | xargs rm
p5
aVmake -j4 bld/gcc/all TARGET=okg BACKEND=flex TRIALS=11 MAT_BUF_SIZE=0x200 LAYER_BUF_SIZE=0x1d10
p6
asVtarget
p7
Vokg
p8
sVdma
p9
I0
sS'mem'
p10
S':020000040003F7\n:10A000000100010001000100010001000100010048\n:10A010000100010001000100010003001300020023\n:10A020000100010001000100010001000100010028\n:10A030000100010001000100160003000100010001\n:00000001FF\n'
p11
sS'trials'
p12
(lp13
(dp14
Voverall
p15
(dp16
Voverflow
p17
I3
sVtime
p18
I21502
ssVcharge
p19
(dp20
Voverflow
p21
I0
sVcycles
p22
I1348
ssVsections
p23
(lp24
(dp25
Voff
p26
(dp27
Voverflow
p28
I2
sVtime
p29
I-9218
ssVcharge
p30
(dp31
Voverflow
p32
I0
sVcycles
p33
I1120
ssVoverall
p34
(dp35
Voverflow
p36
I3
sVtime
p37
I1149
ssa(dp38
Voff
p39
(dp40
Voverflow
p41
I0
sVtime
p42
I11291
ssVcharge
p43
(dp44
Voverflow
p45
I0
sVcycles
p46
I219
ssVoverall
p47
(dp48
Voverflow
p49
I0
sVtime
p50
I19384
ssasVoff
p51
(dp52
Voverflow
p53
I2
sVtime
p54
I2538
ssa(dp55
Voverall
p56
(dp57
Voverflow
p58
I4
sVtime
p59
I-10778
ssVcharge
p60
(dp61
Voverflow
p62
I0
sVcycles
p63
I1355
ssVsections
p64
(lp65
(dp66
Voff
p67
(dp68
Voverflow
p69
I2
sVtime
p70
I-9015
ssVcharge
p71
(dp72
Voverflow
p73
I0
sVcycles
p74
I1124
ssVoverall
p75
(dp76
Voverflow
p77
I3
sVtime
p78
I1339
ssa(dp79
Voff
p80
(dp81
Voverflow
p82
I1
sVtime
p83
I-21256
ssVcharge
p84
(dp85
Voverflow
p86
I0
sVcycles
p87
I222
ssVoverall
p88
(dp89
Voverflow
p90
I1
sVtime
p91
I-13134
ssasVoff
p92
(dp93
Voverflow
p94
I3
sVtime
p95
I-29804
ssa(dp96
Voverall
p97
(dp98
Voverflow
p99
I4
sVtime
p100
I-10982
ssVcharge
p101
(dp102
Voverflow
p103
I0
sVcycles
p104
I1352
ssVsections
p105
(lp106
(dp107
Voff
p108
(dp109
Voverflow
p110
I2
sVtime
p111
I23939
ssVcharge
p112
(dp113
Voverflow
p114
I0
sVcycles
p115
I1124
ssVoverall
p116
(dp117
Voverflow
p118
I3
sVtime
p119
I1532
ssa(dp120
Voff
p121
(dp122
Voverflow
p123
I1
sVtime
p124
I-21484
ssVcharge
p125
(dp126
Voverflow
p127
I0
sVcycles
p128
I219
ssVoverall
p129
(dp130
Voverflow
p131
I1
sVtime
p132
I-13428
ssasVoff
p133
(dp134
Voverflow
p135
I3
sVtime
p136
I2907
ssa(dp137
Voverall
p138
(dp139
Voverflow
p140
I3
sVtime
p141
I22021
ssVcharge
p142
(dp143
Voverflow
p144
I0
sVcycles
p145
I1352
ssVsections
p146
(lp147
(dp148
Voff
p149
(dp150
Voverflow
p151
I1
sVtime
p152
I23826
ssVcharge
p153
(dp154
Voverflow
p155
I0
sVcycles
p156
I1122
ssVoverall
p157
(dp158
Voverflow
p159
I3
sVtime
p160
I1489
ssa(dp161
Voff
p162
(dp163
Voverflow
p164
I1
sVtime
p165
I-21286
ssVcharge
p166
(dp167
Voverflow
p168
I0
sVcycles
p169
I221
ssVoverall
p170
(dp171
Voverflow
p172
I0
sVtime
p173
I19482
ssasVoff
p174
(dp175
Voverflow
p176
I2
sVtime
p177
I3002
ssa(dp178
Voverall
p179
(dp180
Voverflow
p181
I4
sVtime
p182
I-11098
ssVcharge
p183
(dp184
Voverflow
p185
I0
sVcycles
p186
I1352
ssVsections
p187
(lp188
(dp189
Voff
p190
(dp191
Voverflow
p192
I2
sVtime
p193
I-8983
ssVcharge
p194
(dp195
Voverflow
p196
I0
sVcycles
p197
I1124
ssVoverall
p198
(dp199
Voverflow
p200
I3
sVtime
p201
I1313
ssa(dp202
Voff
p203
(dp204
Voverflow
p205
I0
sVtime
p206
I11342
ssVcharge
p207
(dp208
Voverflow
p209
I0
sVcycles
p210
I219
ssVoverall
p211
(dp212
Voverflow
p213
I1
sVtime
p214
I-13410
ssasVoff
p215
(dp216
Voverflow
p217
I2
sVtime
p218
I2823
ssa(dp219
Voverall
p220
(dp221
Voverflow
p222
I4
sVtime
p223
I-10766
ssVcharge
p224
(dp225
Voverflow
p226
I0
sVcycles
p227
I1359
ssVsections
p228
(lp229
(dp230
Voff
p231
(dp232
Voverflow
p233
I2
sVtime
p234
I-8853
ssVcharge
p235
(dp236
Voverflow
p237
I0
sVcycles
p238
I1128
ssVoverall
p239
(dp240
Voverflow
p241
I3
sVtime
p242
I1487
ssa(dp243
Voff
p244
(dp245
Voverflow
p246
I0
sVtime
p247
I11489
ssVcharge
p248
(dp249
Voverflow
p250
I0
sVcycles
p251
I222
ssVoverall
p252
(dp253
Voverflow
p254
I1
sVtime
p255
I-13216
ssasVoff
p256
(dp257
Voverflow
p258
I2
sVtime
p259
I3092
ssa(dp260
Voverall
p261
(dp262
Voverflow
p263
I3
sVtime
p264
I21853
ssVcharge
p265
(dp266
Voverflow
p267
I0
sVcycles
p268
I1352
ssVsections
p269
(lp270
(dp271
Voff
p272
(dp273
Voverflow
p274
I2
sVtime
p275
I-8928
ssVcharge
p276
(dp277
Voverflow
p278
I0
sVcycles
p279
I1122
ssVoverall
p280
(dp281
Voverflow
p282
I3
sVtime
p283
I1364
ssa(dp284
Voff
p285
(dp286
Voverflow
p287
I0
sVtime
p288
I11370
ssVcharge
p289
(dp290
Voverflow
p291
I0
sVcycles
p292
I220
ssVoverall
p293
(dp294
Voverflow
p295
I0
sVtime
p296
I19413
ssasVoff
p297
(dp298
Voverflow
p299
I2
sVtime
p300
I2956
ssa(dp301
Voverall
p302
(dp303
Voverflow
p304
I4
sVtime
p305
I-10482
ssVcharge
p306
(dp307
Voverflow
p308
I0
sVcycles
p309
I1358
ssVsections
p310
(lp311
(dp312
Voff
p313
(dp314
Voverflow
p315
I2
sVtime
p316
I-8695
ssVcharge
p317
(dp318
Voverflow
p319
I0
sVcycles
p320
I1126
ssVoverall
p321
(dp322
Voverflow
p323
I4
sVtime
p324
I-31176
ssa(dp325
Voff
p326
(dp327
Voverflow
p328
I0
sVtime
p329
I11568
ssVcharge
p330
(dp331
Voverflow
p332
I0
sVcycles
p333
I223
ssVoverall
p334
(dp335
Voverflow
p336
I0
sVtime
p337
I19650
ssasVoff
p338
(dp339
Voverflow
p340
I2
sVtime
p341
I3332
ssa(dp342
Voverall
p343
(dp344
Voverflow
p345
I4
sVtime
p346
I-10824
ssVcharge
p347
(dp348
Voverflow
p349
I0
sVcycles
p350
I1358
ssVsections
p351
(lp352
(dp353
Voff
p354
(dp355
Voverflow
p356
I2
sVtime
p357
I-8769
ssVcharge
p358
(dp359
Voverflow
p360
I0
sVcycles
p361
I1129
ssVoverall
p362
(dp363
Voverflow
p364
I3
sVtime
p365
I1672
ssa(dp366
Voff
p367
(dp368
Voverflow
p369
I0
sVtime
p370
I11263
ssVcharge
p371
(dp372
Voverflow
p373
I0
sVcycles
p374
I220
ssVoverall
p375
(dp376
Voverflow
p377
I1
sVtime
p378
I-13456
ssasVoff
p379
(dp380
Voverflow
p381
I2
sVtime
p382
I2940
ssa(dp383
Voverall
p384
(dp385
Voverflow
p386
I3
sVtime
p387
I22121
ssVcharge
p388
(dp389
Voverflow
p390
I0
sVcycles
p391
I1359
ssVsections
p392
(lp393
(dp394
Voff
p395
(dp396
Voverflow
p397
I2
sVtime
p398
I-8790
ssVcharge
p399
(dp400
Voverflow
p401
I0
sVcycles
p402
I1127
ssVoverall
p403
(dp404
Voverflow
p405
I3
sVtime
p406
I1529
ssa(dp407
Voff
p408
(dp409
Voverflow
p410
I0
sVtime
p411
I11461
ssVcharge
p412
(dp413
Voverflow
p414
I0
sVcycles
p415
I223
ssVoverall
p416
(dp417
Voverflow
p418
I0
sVtime
p419
I19577
ssasVoff
p420
(dp421
Voverflow
p422
I2
sVtime
p423
I3136
ssa(dp424
Voverall
p425
(dp426
Voverflow
p427
I4
sVtime
p428
I-10534
ssVcharge
p429
(dp430
Voverflow
p431
I0
sVcycles
p432
I1362
ssVsections
p433
(lp434
(dp435
Voff
p436
(dp437
Voverflow
p438
I2
sVtime
p439
I-8547
ssVcharge
p440
(dp441
Voverflow
p442
I0
sVcycles
p443
I1133
ssVoverall
p444
(dp445
Voverflow
p446
I3
sVtime
p447
I1842
ssa(dp448
Voff
p449
(dp450
Voverflow
p451
I0
sVtime
p452
I11309
ssVcharge
p453
(dp454
Voverflow
p455
I0
sVcycles
p456
I220
ssVoverall
p457
(dp458
Voverflow
p459
I0
sVtime
p460
I19385
ssasVoff
p461
(dp462
Voverflow
p463
I2
sVtime
p464
I3229
ssasVeid
p465
I37
sVtile_size
p466
I0
sVbackend
p467
Vflex
p468
s.