(dp0
Vlea
p1
I00
sVcommands
p2
(lp3
Vrm bld/gcc/*.{out,o,d}
p4
aVfind ext/libdnn -name '*.a' -or -name '*.o' | xargs rm
p5
aVmake -j4 bld/gcc/all TARGET=okg BACKEND=tile TRIALS=11 MAT_BUF_SIZE=0x200 LAYER_BUF_SIZE=0x1d10 TILE_SIZE=8
p6
asVtarget
p7
Vokg
p8
sVdma
p9
I0
sS'mem'
p10
S':020000040003F7\n:10A000000100010001000100010001000100010048\n:10A010000100010001000100010003001300020023\n:10A020000100010001000100010001000100010028\n:10A030000100010001000100160003000100010001\n:00000001FF\n'
p11
sS'trials'
p12
(lp13
(dp14
Voverall
p15
(dp16
Voverflow
p17
I31
sVtime
p18
I2359
ssVcharge
p19
(dp20
Voverflow
p21
I1
sVcycles
p22
I-21080
ssVsections
p23
(lp24
(dp25
Voff
p26
(dp27
Voverflow
p28
I15
sVtime
p29
I-23913
ssVcharge
p30
(dp31
Voverflow
p32
I1
sVcycles
p33
I-23679
ssVoverall
p34
(dp35
Voverflow
p36
I24
sVtime
p37
I4558
ssa(dp38
Voff
p39
(dp40
Voverflow
p41
I4
sVtime
p42
I3641
ssVcharge
p43
(dp44
Voverflow
p45
I0
sVcycles
p46
I2570
ssVoverall
p47
(dp48
Voverflow
p49
I7
sVtime
p50
I-4714
ssasVoff
p51
(dp52
Voverflow
p53
I19
sVtime
p54
I-18758
ssa(dp55
Voverall
p56
(dp57
Voverflow
p58
I31
sVtime
p59
I7572
ssVcharge
p60
(dp61
Voverflow
p62
I0
sVcycles
p63
I11649
ssVsections
p64
(lp65
(dp66
Voff
p67
(dp68
Voverflow
p69
I15
sVtime
p70
I10648
ssVcharge
p71
(dp72
Voverflow
p73
I0
sVcycles
p74
I9066
ssVoverall
p75
(dp76
Voverflow
p77
I24
sVtime
p78
I9074
ssa(dp79
Voff
p80
(dp81
Voverflow
p82
I4
sVtime
p83
I3891
ssVcharge
p84
(dp85
Voverflow
p86
I0
sVcycles
p87
I2555
ssVoverall
p88
(dp89
Voverflow
p90
I7
sVtime
p91
I-4010
ssasVoff
p92
(dp93
Voverflow
p94
I19
sVtime
p95
I16017
ssa(dp96
Voverall
p97
(dp98
Voverflow
p99
I31
sVtime
p100
I11779
ssVcharge
p101
(dp102
Voverflow
p103
I0
sVcycles
p104
I11646
ssVsections
p105
(lp106
(dp107
Voff
p108
(dp109
Voverflow
p110
I15
sVtime
p111
I-19459
ssVcharge
p112
(dp113
Voverflow
p114
I0
sVcycles
p115
I9064
ssVoverall
p116
(dp117
Voverflow
p118
I24
sVtime
p119
I12786
ssa(dp120
Voff
p121
(dp122
Voverflow
p123
I4
sVtime
p124
I4190
ssVcharge
p125
(dp126
Voverflow
p127
I0
sVcycles
p128
I2553
ssVoverall
p129
(dp130
Voverflow
p131
I7
sVtime
p132
I-3642
ssasVoff
p133
(dp134
Voverflow
p135
I19
sVtime
p136
I-13738
ssa(dp137
Voverall
p138
(dp139
Voverflow
p140
I32
sVtime
p141
I-22522
ssVcharge
p142
(dp143
Voverflow
p144
I1
sVcycles
p145
I-21125
ssVsections
p146
(lp147
(dp148
Voff
p149
(dp150
Voverflow
p151
I14
sVtime
p152
I12060
ssVcharge
p153
(dp154
Voverflow
p155
I1
sVcycles
p156
I-23707
ssVoverall
p157
(dp158
Voverflow
p159
I25
sVtime
p160
I-20771
ssa(dp161
Voff
p162
(dp163
Voverflow
p164
I4
sVtime
p165
I3627
ssVcharge
p166
(dp167
Voverflow
p168
I0
sVcycles
p169
I2553
ssVoverall
p170
(dp171
Voverflow
p172
I7
sVtime
p173
I-4412
ssasVoff
p174
(dp175
Voverflow
p176
I18
sVtime
p177
I17249
ssa(dp178
Voverall
p179
(dp180
Voverflow
p181
I31
sVtime
p182
I6889
ssVcharge
p183
(dp184
Voverflow
p185
I0
sVcycles
p186
I11640
ssVsections
p187
(lp188
(dp189
Voff
p190
(dp191
Voverflow
p192
I14
sVtime
p193
I9934
ssVcharge
p194
(dp195
Voverflow
p196
I0
sVcycles
p197
I9058
ssVoverall
p198
(dp199
Voverflow
p200
I24
sVtime
p201
I9445
ssa(dp202
Voff
p203
(dp204
Voverflow
p205
I4
sVtime
p206
I3005
ssVcharge
p207
(dp208
Voverflow
p209
I0
sVcycles
p210
I2554
ssVoverall
p211
(dp212
Voverflow
p213
I7
sVtime
p214
I-5056
ssasVoff
p215
(dp216
Voverflow
p217
I19
sVtime
p218
I-18359
ssa(dp219
Voverall
p220
(dp221
Voverflow
p222
I31
sVtime
p223
I6486
ssVcharge
p224
(dp225
Voverflow
p226
I0
sVcycles
p227
I11645
ssVsections
p228
(lp229
(dp230
Voff
p231
(dp232
Voverflow
p233
I17
sVtime
p234
I9221
ssVcharge
p235
(dp236
Voverflow
p237
I0
sVcycles
p238
I9059
ssVoverall
p239
(dp240
Voverflow
p241
I24
sVtime
p242
I8905
ssa(dp243
Voff
p244
(dp245
Voverflow
p246
I4
sVtime
p247
I2978
ssVcharge
p248
(dp249
Voverflow
p250
I0
sVcycles
p251
I2557
ssVoverall
p252
(dp253
Voverflow
p254
I7
sVtime
p255
I-5088
ssasVoff
p256
(dp257
Voverflow
p258
I21
sVtime
p259
I13741
ssa(dp260
Voverall
p261
(dp262
Voverflow
p263
I31
sVtime
p264
I5841
ssVcharge
p265
(dp266
Voverflow
p267
I1
sVcycles
p268
I-21117
ssVsections
p269
(lp270
(dp271
Voff
p272
(dp273
Voverflow
p274
I15
sVtime
p275
I-22765
ssVcharge
p276
(dp277
Voverflow
p278
I1
sVcycles
p279
I-23705
ssVoverall
p280
(dp281
Voverflow
p282
I24
sVtime
p283
I8489
ssa(dp284
Voff
p285
(dp286
Voverflow
p287
I4
sVtime
p288
I2858
ssVcharge
p289
(dp290
Voverflow
p291
I0
sVcycles
p292
I2559
ssVoverall
p293
(dp294
Voverflow
p295
I7
sVtime
p296
I-5248
ssasVoff
p297
(dp298
Voverflow
p299
I19
sVtime
p300
I-18373
ssa(dp301
Voverall
p302
(dp303
Voverflow
p304
I31
sVtime
p305
I6124
ssVcharge
p306
(dp307
Voverflow
p308
I0
sVcycles
p309
I11640
ssVsections
p310
(lp311
(dp312
Voff
p313
(dp314
Voverflow
p315
I16
sVtime
p316
I9324
ssVcharge
p317
(dp318
Voverflow
p319
I0
sVcycles
p320
I9059
ssVoverall
p321
(dp322
Voverflow
p323
I25
sVtime
p324
I-24157
ssa(dp325
Voff
p326
(dp327
Voverflow
p328
I4
sVtime
p329
I2961
ssVcharge
p330
(dp331
Voverflow
p332
I0
sVcycles
p333
I2553
ssVoverall
p334
(dp335
Voverflow
p336
I6
sVtime
p337
I27750
ssasVoff
p338
(dp339
Voverflow
p340
I20
sVtime
p341
I13764
ssa(dp342
Voverall
p343
(dp344
Voverflow
p345
I32
sVtime
p346
I-29063
ssVcharge
p347
(dp348
Voverflow
p349
I1
sVcycles
p350
I-21125
ssVsections
p351
(lp352
(dp353
Voff
p354
(dp355
Voverflow
p356
I17
sVtime
p357
I8600
ssVcharge
p358
(dp359
Voverflow
p360
I0
sVcycles
p361
I9062
ssVoverall
p362
(dp363
Voverflow
p364
I25
sVtime
p365
I-25188
ssa(dp366
Voff
p367
(dp368
Voverflow
p369
I4
sVtime
p370
I1579
ssVcharge
p371
(dp372
Voverflow
p373
I1
sVcycles
p374
I-30215
ssVoverall
p375
(dp376
Voverflow
p377
I7
sVtime
p378
I-6396
ssasVoff
p379
(dp380
Voverflow
p381
I22
sVtime
p382
I-21122
ssa(dp383
Voverall
p384
(dp385
Voverflow
p386
I31
sVtime
p387
I1665
ssVcharge
p388
(dp389
Voverflow
p390
I0
sVcycles
p391
I11642
ssVsections
p392
(lp393
(dp394
Voff
p395
(dp396
Voverflow
p397
I14
sVtime
p398
I6213
ssVcharge
p399
(dp400
Voverflow
p401
I0
sVcycles
p402
I9058
ssVoverall
p403
(dp404
Voverflow
p405
I24
sVtime
p406
I5504
ssa(dp407
Voff
p408
(dp409
Voverflow
p410
I4
sVtime
p411
I1590
ssVcharge
p412
(dp413
Voverflow
p414
I0
sVcycles
p415
I2555
ssVoverall
p416
(dp417
Voverflow
p418
I7
sVtime
p419
I-6411
ssasVoff
p420
(dp421
Voverflow
p422
I18
sVtime
p423
I9314
ssa(dp424
Voverall
p425
(dp426
Voverflow
p427
I31
sVtime
p428
I691
ssVcharge
p429
(dp430
Voverflow
p431
I0
sVcycles
p432
I11635
ssVsections
p433
(lp434
(dp435
Voff
p436
(dp437
Voverflow
p438
I15
sVtime
p439
I4852
ssVcharge
p440
(dp441
Voverflow
p442
I0
sVcycles
p443
I9057
ssVoverall
p444
(dp445
Voverflow
p446
I24
sVtime
p447
I4534
ssa(dp448
Voff
p449
(dp450
Voverflow
p451
I4
sVtime
p452
I1634
ssVcharge
p453
(dp454
Voverflow
p455
I0
sVcycles
p456
I2550
ssVoverall
p457
(dp458
Voverflow
p459
I7
sVtime
p460
I-6332
ssasVoff
p461
(dp462
Voverflow
p463
I19
sVtime
p464
I7949
ssasVeid
p465
I38
sVtile_size
p466
I8
sVbackend
p467
Vtile
p468
s.