(dp0
Vlea
p1
I00
sVcommands
p2
(lp3
Vrm bld/gcc/*.{out,o,d}
p4
aVfind ext/libdnn -name '*.a' -or -name '*.o' | xargs rm
p5
aVmake -j4 bld/gcc/all TARGET=okg BACKEND=tile TRIALS=11 MAT_BUF_SIZE=0x200 LAYER_BUF_SIZE=0x1d10 TILE_SIZE=32
p6
asVtarget
p7
Vokg
p8
sVdma
p9
I0
sS'mem'
p10
S':020000040003F7\n:10A000000100010001000100010001000100010048\n:10A010000100010001000100010003001300020023\n:10A020000100010001000100010001000100010028\n:10A030000100010001000100160003000100010001\n:00000001FF\n'
p11
sS'trials'
p12
(lp13
(dp14
Voverall
p15
(dp16
Voverflow
p17
I22
sVtime
p18
I10875
ssVcharge
p19
(dp20
Voverflow
p21
I0
sVcycles
p22
I8327
ssVsections
p23
(lp24
(dp25
Voff
p26
(dp27
Voverflow
p28
I10
sVtime
p29
I-233
ssVcharge
p30
(dp31
Voverflow
p32
I0
sVcycles
p33
I6482
ssVoverall
p34
(dp35
Voverflow
p36
I17
sVtime
p37
I12622
ssa(dp38
Voff
p39
(dp40
Voverflow
p41
I3
sVtime
p42
I-5268
ssVcharge
p43
(dp44
Voverflow
p45
I0
sVcycles
p46
I1824
ssVoverall
p47
(dp48
Voverflow
p49
I5
sVtime
p50
I-3664
ssasVoff
p51
(dp52
Voverflow
p53
I13
sVtime
p54
I-4433
ssa(dp55
Voverall
p56
(dp57
Voverflow
p58
I23
sVtime
p59
I-21595
ssVcharge
p60
(dp61
Voverflow
p62
I1
sVcycles
p63
I-24424
ssVsections
p64
(lp65
(dp66
Voff
p67
(dp68
Voverflow
p69
I10
sVtime
p70
I-345
ssVcharge
p71
(dp72
Voverflow
p73
I1
sVcycles
p74
I-26270
ssVoverall
p75
(dp76
Voverflow
p77
I18
sVtime
p78
I-19625
ssa(dp79
Voff
p80
(dp81
Voverflow
p82
I3
sVtime
p83
I-5674
ssVcharge
p84
(dp85
Voverflow
p86
I0
sVcycles
p87
I1825
ssVoverall
p88
(dp89
Voverflow
p90
I5
sVtime
p91
I-3949
ssasVoff
p92
(dp93
Voverflow
p94
I13
sVtime
p95
I-4930
ssa(dp96
Voverall
p97
(dp98
Voverflow
p99
I22
sVtime
p100
I11520
ssVcharge
p101
(dp102
Voverflow
p103
I0
sVcycles
p104
I8362
ssVsections
p105
(lp106
(dp107
Voff
p108
(dp109
Voverflow
p110
I10
sVtime
p111
I-475
ssVcharge
p112
(dp113
Voverflow
p114
I0
sVcycles
p115
I6516
ssVoverall
p116
(dp117
Voverflow
p118
I17
sVtime
p119
I13877
ssa(dp120
Voff
p121
(dp122
Voverflow
p123
I3
sVtime
p124
I-5963
ssVcharge
p125
(dp126
Voverflow
p127
I0
sVcycles
p128
I1825
ssVoverall
p129
(dp130
Voverflow
p131
I5
sVtime
p132
I-4278
ssasVoff
p133
(dp134
Voverflow
p135
I13
sVtime
p136
I-5374
ssa(dp137
Voverall
p138
(dp139
Voverflow
p140
I23
sVtime
p141
I-17178
ssVcharge
p142
(dp143
Voverflow
p144
I0
sVcycles
p145
I8411
ssVsections
p146
(lp147
(dp148
Voff
p149
(dp150
Voverflow
p151
I11
sVtime
p152
I1897
ssVcharge
p153
(dp154
Voverflow
p155
I0
sVcycles
p156
I6565
ssVoverall
p157
(dp158
Voverflow
p159
I18
sVtime
p160
I-15008
ssa(dp161
Voff
p162
(dp163
Voverflow
p164
I3
sVtime
p165
I-5755
ssVcharge
p166
(dp167
Voverflow
p168
I0
sVcycles
p169
I1825
ssVoverall
p170
(dp171
Voverflow
p172
I5
sVtime
p173
I-4100
ssasVoff
p174
(dp175
Voverflow
p176
I14
sVtime
p177
I-2785
ssa(dp178
Voverall
p179
(dp180
Voverflow
p181
I22
sVtime
p182
I21296
ssVcharge
p183
(dp184
Voverflow
p185
I1
sVcycles
p186
I-24282
ssVsections
p187
(lp188
(dp189
Voff
p190
(dp191
Voverflow
p192
I10
sVtime
p193
I5227
ssVcharge
p194
(dp195
Voverflow
p196
I0
sVcycles
p197
I6634
ssVoverall
p198
(dp199
Voverflow
p200
I17
sVtime
p201
I23166
ssa(dp202
Voff
p203
(dp204
Voverflow
p205
I3
sVtime
p206
I-5574
ssVcharge
p207
(dp208
Voverflow
p209
I1
sVcycles
p210
I-30937
ssVoverall
p211
(dp212
Voverflow
p213
I5
sVtime
p214
I-3822
ssasVoff
p215
(dp216
Voverflow
p217
I13
sVtime
p218
I714
ssa(dp219
Voverall
p220
(dp221
Voverflow
p222
I23
sVtime
p223
I-8822
ssVcharge
p224
(dp225
Voverflow
p226
I0
sVcycles
p227
I8536
ssVsections
p228
(lp229
(dp230
Voff
p231
(dp232
Voverflow
p233
I10
sVtime
p234
I7199
ssVcharge
p235
(dp236
Voverflow
p237
I0
sVcycles
p238
I6681
ssVoverall
p239
(dp240
Voverflow
p241
I18
sVtime
p242
I-6688
ssa(dp243
Voff
p244
(dp245
Voverflow
p246
I3
sVtime
p247
I-5596
ssVcharge
p248
(dp249
Voverflow
p250
I0
sVcycles
p251
I1834
ssVoverall
p252
(dp253
Voverflow
p254
I5
sVtime
p255
I-4105
ssasVoff
p256
(dp257
Voverflow
p258
I13
sVtime
p259
I2683
ssa(dp260
Voverall
p261
(dp262
Voverflow
p263
I23
sVtime
p264
I-6667
ssVcharge
p265
(dp266
Voverflow
p267
I0
sVcycles
p268
I8576
ssVsections
p269
(lp270
(dp271
Voff
p272
(dp273
Voverflow
p274
I10
sVtime
p275
I8419
ssVcharge
p276
(dp277
Voverflow
p278
I0
sVcycles
p279
I6715
ssVoverall
p280
(dp281
Voverflow
p282
I18
sVtime
p283
I-4824
ssa(dp284
Voff
p285
(dp286
Voverflow
p287
I3
sVtime
p288
I-5298
ssVcharge
p289
(dp290
Voverflow
p291
I0
sVcycles
p292
I1840
ssVoverall
p293
(dp294
Voverflow
p295
I5
sVtime
p296
I-3758
ssasVoff
p297
(dp298
Voverflow
p299
I13
sVtime
p300
I4185
ssa(dp301
Voverall
p302
(dp303
Voverflow
p304
I23
sVtime
p305
I-7214
ssVcharge
p306
(dp307
Voverflow
p308
I0
sVcycles
p309
I8551
ssVsections
p310
(lp311
(dp312
Voff
p313
(dp314
Voverflow
p315
I11
sVtime
p316
I8716
ssVcharge
p317
(dp318
Voverflow
p319
I0
sVcycles
p320
I6701
ssVoverall
p321
(dp322
Voverflow
p323
I18
sVtime
p324
I-4934
ssa(dp325
Voff
p326
(dp327
Voverflow
p328
I3
sVtime
p329
I-5666
ssVcharge
p330
(dp331
Voverflow
p332
I0
sVcycles
p333
I1829
ssVoverall
p334
(dp335
Voverflow
p336
I5
sVtime
p337
I-4172
ssasVoff
p338
(dp339
Voverflow
p340
I14
sVtime
p341
I4116
ssa(dp342
Voverall
p343
(dp344
Voverflow
p345
I22
sVtime
p346
I26817
ssVcharge
p347
(dp348
Voverflow
p349
I1
sVcycles
p350
I-24214
ssVsections
p351
(lp352
(dp353
Voff
p354
(dp355
Voverflow
p356
I10
sVtime
p357
I9114
ssVcharge
p358
(dp359
Voverflow
p360
I1
sVcycles
p361
I-26072
ssVoverall
p362
(dp363
Voverflow
p364
I17
sVtime
p365
I28348
ssa(dp366
Voff
p367
(dp368
Voverflow
p369
I3
sVtime
p370
I-5103
ssVcharge
p371
(dp372
Voverflow
p373
I0
sVcycles
p374
I1837
ssVoverall
p375
(dp376
Voverflow
p377
I5
sVtime
p378
I-3471
ssasVoff
p379
(dp380
Voverflow
p381
I13
sVtime
p382
I5056
ssa(dp383
Voverall
p384
(dp385
Voverflow
p386
I23
sVtime
p387
I-4927
ssVcharge
p388
(dp389
Voverflow
p390
I0
sVcycles
p391
I8587
ssVsections
p392
(lp393
(dp394
Voff
p395
(dp396
Voverflow
p397
I10
sVtime
p398
I9901
ssVcharge
p399
(dp400
Voverflow
p401
I0
sVcycles
p402
I6724
ssVoverall
p403
(dp404
Voverflow
p405
I18
sVtime
p406
I-3498
ssa(dp407
Voff
p408
(dp409
Voverflow
p410
I3
sVtime
p411
I-4936
ssVcharge
p412
(dp413
Voverflow
p414
I0
sVcycles
p415
I1842
ssVoverall
p416
(dp417
Voverflow
p418
I5
sVtime
p419
I-3356
ssasVoff
p420
(dp421
Voverflow
p422
I13
sVtime
p423
I6039
ssa(dp424
Voverall
p425
(dp426
Voverflow
p427
I23
sVtime
p428
I-5808
ssVcharge
p429
(dp430
Voverflow
p431
I0
sVcycles
p432
I8596
ssVsections
p433
(lp434
(dp435
Voff
p436
(dp437
Voverflow
p438
I11
sVtime
p439
I-23262
ssVcharge
p440
(dp441
Voverflow
p442
I0
sVcycles
p443
I6732
ssVoverall
p444
(dp445
Voverflow
p446
I18
sVtime
p447
I-4262
ssa(dp448
Voff
p449
(dp450
Voverflow
p451
I2
sVtime
p452
I27802
ssVcharge
p453
(dp454
Voverflow
p455
I0
sVcycles
p456
I1843
ssVoverall
p457
(dp458
Voverflow
p459
I5
sVtime
p460
I-3460
ssasVoff
p461
(dp462
Voverflow
p463
I13
sVtime
p464
I5602
ssasVeid
p465
I39
sVtile_size
p466
I32
sVbackend
p467
Vtile
p468
s.