(dp0
S'trials'
p1
(lp2
(dp3
S'overall'
p4
(dp5
S'overflow'
p6
I0
sS'time'
p7
I0
ssS'charge'
p8
(dp9
g6
I0
sS'cycles'
p10
I0
ssS'off'
p11
(dp12
g6
I0
sg7
I0
ssS'sections'
p13
(lp14
sasS'tile_size'
p15
I128
sS'target'
p16
S'mnist'
p17
sS'eid'
p18
I51
sS'backend'
p19
S'tile'
p20
s.