(dp0
Vlea
p1
I01
sVcommands
p2
(lp3
Vrm bld/gcc/*.{out,o,d}
p4
aVfind ext/libdnn -name '*.a' -or -name '*.o' | xargs rm
p5
aVfind ext/libdsp -name '*.a' -or -name '*.o' | xargs rm
p6
aVmake -j4 bld/gcc/all TARGET=mnist BACKEND=lea TRIALS=11 MAT_BUF_SIZE=0x310 LAYER_BUF_SIZE=0x3000 TILE_SIZE=32
p7
asVtarget
p8
Vmnist
p9
sVdma
p10
I2
sS'mem'
p11
S':020000040003F7\n:10A00000FFFFFFFFFFFFFFFFFFFFFFFFFFFFFFFF60\n:10A01000FFFFFFFFFFFFFFFFFFFFFFFFFFFFFFFF50\n:10A02000FFFFFFFFFFFFFFFFFFFFFFFFFFFFFFFF40\n:10A03000FFFFFFFFFFFFFFFFFFFFFFFFFFFFFFFF30\n:00000001FF\n'
p12
sS'trials'
p13
(lp14
(dp15
Voverall
p16
(dp17
Voverflow
p18
I2
sVtime
p19
I-4469
ssVcharge
p20
(dp21
Voverflow
p22
I0
sVcycles
p23
I564
ssVsections
p24
(lp25
(dp26
Voff
p27
(dp28
Voverflow
p29
I0
sVtime
p30
I10104
ssVcharge
p31
(dp32
Voverflow
p33
I0
sVcycles
p34
I203
ssVoverall
p35
(dp36
Voverflow
p37
I1
sVtime
p38
I-12847
ssa(dp39
Voff
p40
(dp41
Voverflow
p42
I1
sVtime
p43
I-17096
ssVcharge
p44
(dp45
Voverflow
p46
I0
sVcycles
p47
I305
ssVoverall
p48
(dp49
Voverflow
p50
I1
sVtime
p51
I2822
ssa(dp52
Voff
p53
(dp54
Voverflow
p55
I0
sVtime
p56
I1187
ssVcharge
p57
(dp58
Voverflow
p59
I0
sVcycles
p60
I24
ssVoverall
p61
(dp62
Voverflow
p63
I0
sVtime
p64
I2422
ssasVoff
p65
(dp66
Voverflow
p67
I1
sVtime
p68
I-4254
ssa(dp69
Voverall
p70
(dp71
Voverflow
p72
I2
sVtime
p73
I-4612
ssVcharge
p74
(dp75
Voverflow
p76
I0
sVcycles
p77
I565
ssVsections
p78
(lp79
(dp80
Voff
p81
(dp82
Voverflow
p83
I0
sVtime
p84
I9736
ssVcharge
p85
(dp86
Voverflow
p87
I0
sVcycles
p88
I195
ssVoverall
p89
(dp90
Voverflow
p91
I1
sVtime
p92
I-13503
ssa(dp93
Voff
p94
(dp95
Voverflow
p96
I1
sVtime
p97
I-16954
ssVcharge
p98
(dp99
Voverflow
p100
I0
sVcycles
p101
I310
ssVoverall
p102
(dp103
Voverflow
p104
I1
sVtime
p105
I2909
ssa(dp106
Voff
p107
(dp108
Voverflow
p109
I0
sVtime
p110
I1162
ssVcharge
p111
(dp112
Voverflow
p113
I0
sVcycles
p114
I24
ssVoverall
p115
(dp116
Voverflow
p117
I0
sVtime
p118
I2365
ssasVoff
p119
(dp120
Voverflow
p121
I1
sVtime
p122
I-4348
ssa(dp123
Voverall
p124
(dp125
Voverflow
p126
I2
sVtime
p127
I-4856
ssVcharge
p128
(dp129
Voverflow
p130
I0
sVcycles
p131
I564
ssVsections
p132
(lp133
(dp134
Voff
p135
(dp136
Voverflow
p137
I0
sVtime
p138
I9603
ssVcharge
p139
(dp140
Voverflow
p141
I0
sVcycles
p142
I194
ssVoverall
p143
(dp144
Voverflow
p145
I0
sVtime
p146
I19239
ssa(dp147
Voff
p148
(dp149
Voverflow
p150
I0
sVtime
p151
I15888
ssVcharge
p152
(dp153
Voverflow
p154
I0
sVcycles
p155
I312
ssVoverall
p156
(dp157
Voverflow
p158
I2
sVtime
p159
I-29726
ssa(dp160
Voff
p161
(dp162
Voverflow
p163
I1
sVtime
p164
I-31549
ssVcharge
p165
(dp166
Voverflow
p167
I0
sVcycles
p168
I26
ssVoverall
p169
(dp170
Voverflow
p171
I0
sVtime
p172
I2369
ssasVoff
p173
(dp174
Voverflow
p175
I1
sVtime
p176
I-4485
ssa(dp177
Voverall
p178
(dp179
Voverflow
p180
I2
sVtime
p181
I-4834
ssVcharge
p182
(dp183
Voverflow
p184
I0
sVcycles
p185
I561
ssVsections
p186
(lp187
(dp188
Voff
p189
(dp190
Voverflow
p191
I0
sVtime
p192
I9575
ssVcharge
p193
(dp194
Voverflow
p195
I0
sVcycles
p196
I194
ssVoverall
p197
(dp198
Voverflow
p199
I0
sVtime
p200
I19190
ssa(dp201
Voff
p202
(dp203
Voverflow
p204
I0
sVtime
p205
I15586
ssVcharge
p206
(dp207
Voverflow
p208
I0
sVcycles
p209
I309
ssVoverall
p210
(dp211
Voverflow
p212
I1
sVtime
p213
I2777
ssa(dp214
Voff
p215
(dp216
Voverflow
p217
I0
sVtime
p218
I1245
ssVcharge
p219
(dp220
Voverflow
p221
I0
sVcycles
p222
I26
ssVoverall
p223
(dp224
Voverflow
p225
I1
sVtime
p226
I-30207
ssasVoff
p227
(dp228
Voverflow
p229
I0
sVtime
p230
I28022
ssa(dp231
Voverall
p232
(dp233
Voverflow
p234
I1
sVtime
p235
I28021
ssVcharge
p236
(dp237
Voverflow
p238
I0
sVcycles
p239
I563
ssVsections
p240
(lp241
(dp242
Voff
p243
(dp244
Voverflow
p245
I1
sVtime
p246
I-22857
ssVcharge
p247
(dp248
Voverflow
p249
I0
sVcycles
p250
I200
ssVoverall
p251
(dp252
Voverflow
p253
I0
sVtime
p254
I19547
ssa(dp255
Voff
p256
(dp257
Voverflow
p258
I0
sVtime
p259
I15765
ssVcharge
p260
(dp261
Voverflow
p262
I0
sVcycles
p263
I306
ssVoverall
p264
(dp265
Voverflow
p266
I1
sVtime
p267
I2917
ssa(dp268
Voff
p269
(dp270
Voverflow
p271
I0
sVtime
p272
I1196
ssVcharge
p273
(dp274
Voverflow
p275
I0
sVcycles
p276
I24
ssVoverall
p277
(dp278
Voverflow
p279
I0
sVtime
p280
I2354
ssasVoff
p281
(dp282
Voverflow
p283
I1
sVtime
p284
I-4280
ssa(dp285
Voverall
p286
(dp287
Voverflow
p288
I2
sVtime
p289
I-4334
ssVcharge
p290
(dp291
Voverflow
p292
I0
sVcycles
p293
I575
ssVsections
p294
(lp295
(dp296
Voff
p297
(dp298
Voverflow
p299
I1
sVtime
p300
I-22765
ssVcharge
p301
(dp302
Voverflow
p303
I0
sVcycles
p304
I202
ssVoverall
p305
(dp306
Voverflow
p307
I1
sVtime
p308
I-13097
ssa(dp309
Voff
p310
(dp311
Voverflow
p312
I0
sVtime
p313
I15974
ssVcharge
p314
(dp315
Voverflow
p316
I0
sVcycles
p317
I314
ssVoverall
p318
(dp319
Voverflow
p320
I1
sVtime
p321
I3045
ssa(dp322
Voff
p323
(dp324
Voverflow
p325
I0
sVtime
p326
I1152
ssVcharge
p327
(dp328
Voverflow
p329
I0
sVcycles
p330
I24
ssVoverall
p331
(dp332
Voverflow
p333
I0
sVtime
p334
I2298
ssasVoff
p335
(dp336
Voverflow
p337
I1
sVtime
p338
I-3949
ssa(dp339
Voverall
p340
(dp341
Voverflow
p342
I2
sVtime
p343
I-4443
ssVcharge
p344
(dp345
Voverflow
p346
I0
sVcycles
p347
I568
ssVsections
p348
(lp349
(dp350
Voff
p351
(dp352
Voverflow
p353
I0
sVtime
p354
I9686
ssVcharge
p355
(dp356
Voverflow
p357
I0
sVcycles
p358
I197
ssVoverall
p359
(dp360
Voverflow
p361
I1
sVtime
p362
I-13548
ssa(dp363
Voff
p364
(dp365
Voverflow
p366
I1
sVtime
p367
I-16858
ssVcharge
p368
(dp369
Voverflow
p370
I0
sVcycles
p371
I311
ssVoverall
p372
(dp373
Voverflow
p374
I1
sVtime
p375
I3059
ssa(dp376
Voff
p377
(dp378
Voverflow
p379
I0
sVtime
p380
I1274
ssVcharge
p381
(dp382
Voverflow
p383
I0
sVcycles
p384
I26
ssVoverall
p385
(dp386
Voverflow
p387
I0
sVtime
p388
I2548
ssasVoff
p389
(dp390
Voverflow
p391
I1
sVtime
p392
I-4194
ssa(dp393
Voverall
p394
(dp395
Voverflow
p396
I2
sVtime
p397
I5551
ssVcharge
p398
(dp399
Voverflow
p400
I0
sVcycles
p401
I727
ssVsections
p402
(lp403
(dp404
Voff
p405
(dp406
Voverflow
p407
I0
sVtime
p408
I10543
ssVcharge
p409
(dp410
Voverflow
p411
I0
sVcycles
p412
I202
ssVoverall
p413
(dp414
Voverflow
p415
I1
sVtime
p416
I-12775
ssa(dp417
Voff
p418
(dp419
Voverflow
p420
I1
sVtime
p421
I-8579
ssVcharge
p422
(dp423
Voverflow
p424
I0
sVcycles
p425
I454
ssVoverall
p426
(dp427
Voverflow
p428
I1
sVtime
p429
I11542
ssa(dp430
Voff
p431
(dp432
Voverflow
p433
I0
sVtime
p434
I1772
ssVcharge
p435
(dp436
Voverflow
p437
I0
sVcycles
p438
I31
ssVoverall
p439
(dp440
Voverflow
p441
I0
sVtime
p442
I2939
ssasVoff
p443
(dp444
Voverflow
p445
I1
sVtime
p446
I5925
ssa(dp447
Voverall
p448
(dp449
Voverflow
p450
I3
sVtime
p451
I-19400
ssVcharge
p452
(dp453
Voverflow
p454
I0
sVcycles
p455
I825
ssVsections
p456
(lp457
(dp458
Voff
p459
(dp460
Voverflow
p461
I1
sVtime
p462
I-17710
ssVcharge
p463
(dp464
Voverflow
p465
I0
sVcycles
p466
I259
ssVoverall
p467
(dp468
Voverflow
p469
I1
sVtime
p470
I-8032
ssa(dp471
Voff
p472
(dp473
Voverflow
p474
I1
sVtime
p475
I-5765
ssVcharge
p476
(dp477
Voverflow
p478
I0
sVcycles
p479
I494
ssVoverall
p480
(dp481
Voverflow
p482
I2
sVtime
p483
I-18289
ssa(dp484
Voff
p485
(dp486
Voverflow
p487
I0
sVtime
p488
I1797
ssVcharge
p489
(dp490
Voverflow
p491
I0
sVcycles
p492
I31
ssVoverall
p493
(dp494
Voverflow
p495
I0
sVtime
p496
I2956
ssasVoff
p497
(dp498
Voverflow
p499
I2
sVtime
p500
I-19296
ssa(dp501
Voverall
p502
(dp503
Voverflow
p504
I2
sVtime
p505
I2171
ssVcharge
p506
(dp507
Voverflow
p508
I0
sVcycles
p509
I658
ssVsections
p510
(lp511
(dp512
Voff
p513
(dp514
Voverflow
p515
I0
sVtime
p516
I15132
ssVcharge
p517
(dp518
Voverflow
p519
I0
sVcycles
p520
I260
ssVoverall
p521
(dp522
Voverflow
p523
I1
sVtime
p524
I-7892
ssa(dp525
Voff
p526
(dp527
Voverflow
p528
I1
sVtime
p529
I-15812
ssVcharge
p530
(dp531
Voverflow
p532
I0
sVcycles
p533
I336
ssVoverall
p534
(dp535
Voverflow
p536
I1
sVtime
p537
I4052
ssa(dp538
Voff
p539
(dp540
Voverflow
p541
I0
sVtime
p542
I1200
ssVcharge
p543
(dp544
Voverflow
p545
I0
sVcycles
p546
I24
ssVoverall
p547
(dp548
Voverflow
p549
I0
sVtime
p550
I2366
ssasVoff
p551
(dp552
Voverflow
p553
I1
sVtime
p554
I2604
ssa(dp555
Voverall
p556
(dp557
Voverflow
p558
I2
sVtime
p559
I-2346
ssVcharge
p560
(dp561
Voverflow
p562
I0
sVcycles
p563
I614
ssVsections
p564
(lp565
(dp566
Voff
p567
(dp568
Voverflow
p569
I0
sVtime
p570
I10471
ssVcharge
p571
(dp572
Voverflow
p573
I0
sVcycles
p574
I211
ssVoverall
p575
(dp576
Voverflow
p577
I0
sVtime
p578
I20146
ssa(dp579
Voff
p580
(dp581
Voverflow
p582
I1
sVtime
p583
I-15573
ssVcharge
p584
(dp585
Voverflow
p586
I0
sVcycles
p587
I340
ssVoverall
p588
(dp589
Voverflow
p590
I1
sVtime
p591
I4344
ssa(dp592
Voff
p593
(dp594
Voverflow
p595
I0
sVtime
p596
I1252
ssVcharge
p597
(dp598
Voverflow
p599
I0
sVcycles
p600
I26
ssVoverall
p601
(dp602
Voverflow
p603
I0
sVtime
p604
I2381
ssasVoff
p605
(dp606
Voverflow
p607
I1
sVtime
p608
I-2055
ssasVeid
p609
I7
sVtile_size
p610
I32
sVbackend
p611
Vlea_fir
p612
s.