(dp0
Vlea
p1
I01
sVcommands
p2
(lp3
Vrm bld/gcc/*.{out,o,d}
p4
aVfind ext/libdnn -name '*.a' -or -name '*.o' | xargs rm
p5
aVfind ext/libdsp -name '*.a' -or -name '*.o' | xargs rm
p6
aVmake -j4 bld/gcc/all TARGET=har BACKEND=lea TRIALS=11 MAT_BUF_SIZE=0x310 LAYER_BUF_SIZE=0x3000 TILE_SIZE=256
p7
asVtarget
p8
Vhar
p9
sVdma
p10
I2
sS'mem'
p11
S':020000040003F7\n:10A00000010001000000010001000000010001004A\n:10A01000000001000100000001000100000001003B\n:10A02000010000000100010000000100010000002B\n:10A03000010001000000010001000000010001001A\n:00000001FF\n'
p12
sS'trials'
p13
(lp14
(dp15
Voverall
p16
(dp17
Voverflow
p18
I1
sVtime
p19
I-21849
ssVcharge
p20
(dp21
Voverflow
p22
I0
sVcycles
p23
I0
ssVsections
p24
(lp25
(dp26
Voff
p27
(dp28
Voverflow
p29
I0
sVtime
p30
I0
ssVcharge
p31
(dp32
Voverflow
p33
I0
sVcycles
p34
I0
ssVoverall
p35
(dp36
Voverflow
p37
I1
sVtime
p38
I-23528
ssa(dp39
Voff
p40
(dp41
Voverflow
p42
I0
sVtime
p43
I0
ssVcharge
p44
(dp45
Voverflow
p46
I0
sVcycles
p47
I0
ssVoverall
p48
(dp49
Voverflow
p50
I0
sVtime
p51
I1376
ssasVoff
p52
(dp53
Voverflow
p54
I0
sVtime
p55
I0
ssa(dp56
Voverall
p57
(dp58
Voverflow
p59
I0
sVtime
p60
I10904
ssVcharge
p61
(dp62
Voverflow
p63
I0
sVcycles
p64
I0
ssVsections
p65
(lp66
(dp67
Voff
p68
(dp69
Voverflow
p70
I0
sVtime
p71
I0
ssVcharge
p72
(dp73
Voverflow
p74
I0
sVcycles
p75
I0
ssVoverall
p76
(dp77
Voverflow
p78
I0
sVtime
p79
I9212
ssa(dp80
Voff
p81
(dp82
Voverflow
p83
I0
sVtime
p84
I0
ssVcharge
p85
(dp86
Voverflow
p87
I0
sVcycles
p88
I0
ssVoverall
p89
(dp90
Voverflow
p91
I0
sVtime
p92
I1385
ssasVoff
p93
(dp94
Voverflow
p95
I0
sVtime
p96
I0
ssa(dp97
Voverall
p98
(dp99
Voverflow
p100
I0
sVtime
p101
I10910
ssVcharge
p102
(dp103
Voverflow
p104
I0
sVcycles
p105
I0
ssVsections
p106
(lp107
(dp108
Voff
p109
(dp110
Voverflow
p111
I0
sVtime
p112
I0
ssVcharge
p113
(dp114
Voverflow
p115
I0
sVcycles
p116
I0
ssVoverall
p117
(dp118
Voverflow
p119
I0
sVtime
p120
I9233
ssa(dp121
Voff
p122
(dp123
Voverflow
p124
I0
sVtime
p125
I0
ssVcharge
p126
(dp127
Voverflow
p128
I0
sVcycles
p129
I0
ssVoverall
p130
(dp131
Voverflow
p132
I0
sVtime
p133
I1376
ssasVoff
p134
(dp135
Voverflow
p136
I0
sVtime
p137
I0
ssa(dp138
Voverall
p139
(dp140
Voverflow
p141
I1
sVtime
p142
I-21861
ssVcharge
p143
(dp144
Voverflow
p145
I0
sVcycles
p146
I0
ssVsections
p147
(lp148
(dp149
Voff
p150
(dp151
Voverflow
p152
I0
sVtime
p153
I0
ssVcharge
p154
(dp155
Voverflow
p156
I0
sVcycles
p157
I0
ssVoverall
p158
(dp159
Voverflow
p160
I1
sVtime
p161
I-23553
ssa(dp162
Voff
p163
(dp164
Voverflow
p165
I0
sVtime
p166
I0
ssVcharge
p167
(dp168
Voverflow
p169
I0
sVcycles
p170
I0
ssVoverall
p171
(dp172
Voverflow
p173
I0
sVtime
p174
I1386
ssasVoff
p175
(dp176
Voverflow
p177
I0
sVtime
p178
I0
ssa(dp179
Voverall
p180
(dp181
Voverflow
p182
I0
sVtime
p183
I10913
ssVcharge
p184
(dp185
Voverflow
p186
I0
sVcycles
p187
I0
ssVsections
p188
(lp189
(dp190
Voff
p191
(dp192
Voverflow
p193
I0
sVtime
p194
I0
ssVcharge
p195
(dp196
Voverflow
p197
I0
sVcycles
p198
I0
ssVoverall
p199
(dp200
Voverflow
p201
I0
sVtime
p202
I9236
ssa(dp203
Voff
p204
(dp205
Voverflow
p206
I0
sVtime
p207
I0
ssVcharge
p208
(dp209
Voverflow
p210
I0
sVcycles
p211
I0
ssVoverall
p212
(dp213
Voverflow
p214
I0
sVtime
p215
I1375
ssasVoff
p216
(dp217
Voverflow
p218
I0
sVtime
p219
I0
ssa(dp220
Voverall
p221
(dp222
Voverflow
p223
I0
sVtime
p224
I10907
ssVcharge
p225
(dp226
Voverflow
p227
I0
sVcycles
p228
I0
ssVsections
p229
(lp230
(dp231
Voff
p232
(dp233
Voverflow
p234
I0
sVtime
p235
I0
ssVcharge
p236
(dp237
Voverflow
p238
I0
sVcycles
p239
I0
ssVoverall
p240
(dp241
Voverflow
p242
I0
sVtime
p243
I9214
ssa(dp244
Voff
p245
(dp246
Voverflow
p247
I0
sVtime
p248
I0
ssVcharge
p249
(dp250
Voverflow
p251
I0
sVcycles
p252
I0
ssVoverall
p253
(dp254
Voverflow
p255
I0
sVtime
p256
I1386
ssasVoff
p257
(dp258
Voverflow
p259
I0
sVtime
p260
I0
ssa(dp261
Voverall
p262
(dp263
Voverflow
p264
I1
sVtime
p265
I-21860
ssVcharge
p266
(dp267
Voverflow
p268
I0
sVcycles
p269
I0
ssVsections
p270
(lp271
(dp272
Voff
p273
(dp274
Voverflow
p275
I0
sVtime
p276
I0
ssVcharge
p277
(dp278
Voverflow
p279
I0
sVcycles
p280
I0
ssVoverall
p281
(dp282
Voverflow
p283
I1
sVtime
p284
I-23536
ssa(dp285
Voff
p286
(dp287
Voverflow
p288
I0
sVtime
p289
I0
ssVcharge
p290
(dp291
Voverflow
p292
I0
sVcycles
p293
I0
ssVoverall
p294
(dp295
Voverflow
p296
I0
sVtime
p297
I1375
ssasVoff
p298
(dp299
Voverflow
p300
I0
sVtime
p301
I0
ssa(dp302
Voverall
p303
(dp304
Voverflow
p305
I0
sVtime
p306
I10904
ssVcharge
p307
(dp308
Voverflow
p309
I0
sVcycles
p310
I0
ssVsections
p311
(lp312
(dp313
Voff
p314
(dp315
Voverflow
p316
I0
sVtime
p317
I0
ssVcharge
p318
(dp319
Voverflow
p320
I0
sVcycles
p321
I0
ssVoverall
p322
(dp323
Voverflow
p324
I0
sVtime
p325
I9214
ssa(dp326
Voff
p327
(dp328
Voverflow
p329
I0
sVtime
p330
I0
ssVcharge
p331
(dp332
Voverflow
p333
I0
sVcycles
p334
I0
ssVoverall
p335
(dp336
Voverflow
p337
I0
sVtime
p338
I1384
ssasVoff
p339
(dp340
Voverflow
p341
I0
sVtime
p342
I0
ssa(dp343
Voverall
p344
(dp345
Voverflow
p346
I0
sVtime
p347
I10909
ssVcharge
p348
(dp349
Voverflow
p350
I0
sVcycles
p351
I0
ssVsections
p352
(lp353
(dp354
Voff
p355
(dp356
Voverflow
p357
I0
sVtime
p358
I0
ssVcharge
p359
(dp360
Voverflow
p361
I0
sVcycles
p362
I0
ssVoverall
p363
(dp364
Voverflow
p365
I0
sVtime
p366
I9232
ssa(dp367
Voff
p368
(dp369
Voverflow
p370
I0
sVtime
p371
I0
ssVcharge
p372
(dp373
Voverflow
p374
I0
sVcycles
p375
I0
ssVoverall
p376
(dp377
Voverflow
p378
I0
sVtime
p379
I1376
ssasVoff
p380
(dp381
Voverflow
p382
I0
sVtime
p383
I0
ssa(dp384
Voverall
p385
(dp386
Voverflow
p387
I1
sVtime
p388
I-21867
ssVcharge
p389
(dp390
Voverflow
p391
I0
sVcycles
p392
I0
ssVsections
p393
(lp394
(dp395
Voff
p396
(dp397
Voverflow
p398
I0
sVtime
p399
I0
ssVcharge
p400
(dp401
Voverflow
p402
I0
sVcycles
p403
I0
ssVoverall
p404
(dp405
Voverflow
p406
I1
sVtime
p407
I-23559
ssa(dp408
Voff
p409
(dp410
Voverflow
p411
I0
sVtime
p412
I0
ssVcharge
p413
(dp414
Voverflow
p415
I0
sVcycles
p416
I0
ssVoverall
p417
(dp418
Voverflow
p419
I0
sVtime
p420
I1385
ssasVoff
p421
(dp422
Voverflow
p423
I0
sVtime
p424
I0
ssa(dp425
Voverall
p426
(dp427
Voverflow
p428
I0
sVtime
p429
I10911
ssVcharge
p430
(dp431
Voverflow
p432
I0
sVcycles
p433
I0
ssVsections
p434
(lp435
(dp436
Voff
p437
(dp438
Voverflow
p439
I0
sVtime
p440
I0
ssVcharge
p441
(dp442
Voverflow
p443
I0
sVcycles
p444
I0
ssVoverall
p445
(dp446
Voverflow
p447
I0
sVtime
p448
I9234
ssa(dp449
Voff
p450
(dp451
Voverflow
p452
I0
sVtime
p453
I0
ssVcharge
p454
(dp455
Voverflow
p456
I0
sVcycles
p457
I0
ssVoverall
p458
(dp459
Voverflow
p460
I0
sVtime
p461
I1376
ssasVoff
p462
(dp463
Voverflow
p464
I0
sVtime
p465
I0
ssasVeid
p466
I17
sVtile_size
p467
I256
sVbackend
p468
Vlea_fir
p469
s.